; ModuleID = 'C:/Users/11401393/Desktop/bachelorproef/VivadoHLS/Demo/Zevenseg/solution1/.autopilot/db/a.o.3.bc'
target datalayout = "e-p:32:32:32-i1:8:8-i8:8:8-i16:16:16-i32:32:32-i64:64:64-f32:32:32-f64:64:64-f80:128:128-v64:64:64-v128:128:128-a0:0:64-f80:32:32-n8:16:32-S32"
target triple = "i686-pc-mingw32"

@value = internal unnamed_addr global i32 0, align 4 ; [#uses=2 type=i32*]
@llvm_global_ctors_1 = appending global [1 x void ()*] [void ()* @_GLOBAL__I_a] ; [#uses=0 type=[1 x void ()*]*]
@llvm_global_ctors_0 = appending global [1 x i32] [i32 65535] ; [#uses=0 type=[1 x i32]*]
@Zevenseg_str = internal unnamed_addr constant [9 x i8] c"Zevenseg\00" ; [#uses=1 type=[9 x i8]*]

; [#uses=1]
declare i32 @llvm.part.select.i32(i32, i32, i32) nounwind readnone

; [#uses=10]
declare void @llvm.dbg.value(metadata, i64, metadata) nounwind readnone

; [#uses=1]
define weak void @_ssdm_op_Write.ap_auto.i7P(i7*, i7) {
entry:
  store i7 %1, i7* %0
  ret void
}

; [#uses=1]
define weak void @_ssdm_op_Write.ap_auto.i4P(i4*, i4) {
entry:
  store i4 %1, i4* %0
  ret void
}

; [#uses=1]
define weak void @_ssdm_op_SpecTopModule(...) {
entry:
  ret void
}

; [#uses=1]
define weak i32 @_ssdm_op_SpecLoopTripCount(...) {
entry:
  ret i32 0
}

; [#uses=3]
define weak void @_ssdm_op_SpecBitsMap(...) {
entry:
  ret void
}

; [#uses=1]
define weak i1 @_ssdm_op_Read.ap_auto.i1(i1) {
entry:
  ret i1 %0
}

; [#uses=0]
declare i4 @_ssdm_op_PartSelect.i4.i32.i32.i32(i32, i32, i32) nounwind readnone

; [#uses=0]
declare i31 @_ssdm_op_PartSelect.i31.i32.i32.i32(i32, i32, i32) nounwind readnone

; [#uses=1]
define weak i28 @_ssdm_op_PartSelect.i28.i32.i32.i32(i32, i32, i32) nounwind readnone {
entry:
  %empty = call i32 @llvm.part.select.i32(i32 %0, i32 %1, i32 %2) ; [#uses=1 type=i32]
  %empty_4 = trunc i32 %empty to i28              ; [#uses=1 type=i28]
  ret i28 %empty_4
}

; [#uses=1]
define weak i1 @_ssdm_op_BitSelect.i1.i32.i32(i32, i32) nounwind readnone {
entry:
  %empty = shl i32 1, %1                          ; [#uses=1 type=i32]
  %empty_5 = and i32 %0, %empty                   ; [#uses=1 type=i32]
  %empty_6 = icmp ne i32 %empty_5, 0              ; [#uses=1 type=i1]
  ret i1 %empty_6
}

; [#uses=1]
declare void @_GLOBAL__I_a() nounwind

; [#uses=0]
define void @Zevenseg(i1 zeroext %sw, i4* %led_V, i7* %display_V) {
_ifconv:
  call void (...)* @_ssdm_op_SpecBitsMap(i1 %sw), !map !33
  call void (...)* @_ssdm_op_SpecBitsMap(i4* %led_V), !map !39
  call void (...)* @_ssdm_op_SpecBitsMap(i7* %display_V), !map !43
  call void (...)* @_ssdm_op_SpecTopModule([9 x i8]* @Zevenseg_str) nounwind
  %sw_read = call i1 @_ssdm_op_Read.ap_auto.i1(i1 %sw) ; [#uses=1 type=i1]
  call void @llvm.dbg.value(metadata !{i1 %sw_read}, i64 0, metadata !47), !dbg !1250 ; [debug line = 60:20] [debug variable = sw]
  call void @llvm.dbg.value(metadata !{i1 %sw}, i64 0, metadata !47), !dbg !1250 ; [debug line = 60:20] [debug variable = sw]
  call void @llvm.dbg.value(metadata !{i4* %led_V}, i64 0, metadata !1251), !dbg !1260 ; [debug line = 60:36] [debug variable = led.V]
  call void @llvm.dbg.value(metadata !{i7* %display_V}, i64 0, metadata !1261), !dbg !1270 ; [debug line = 60:53] [debug variable = display.V]
  %value_load = load i32* @value, align 4, !dbg !1271 ; [#uses=3 type=i32] [debug line = 65:3]
  %tmp = add nsw i32 1, %value_load, !dbg !1271   ; [#uses=2 type=i32] [debug line = 65:3]
  %tmp_1 = call i28 @_ssdm_op_PartSelect.i28.i32.i32.i32(i32 %tmp, i32 4, i32 31), !dbg !1274 ; [#uses=1 type=i28] [debug line = 66:3]
  %icmp = icmp sgt i28 %tmp_1, 0, !dbg !1274      ; [#uses=1 type=i1] [debug line = 66:3]
  %p_s = select i1 %icmp, i32 0, i32 %tmp, !dbg !1274 ; [#uses=1 type=i32] [debug line = 66:3]
  %tmp_3 = trunc i32 %value_load to i31           ; [#uses=1 type=i31]
  %tmp_2 = add nsw i32 -1, %value_load, !dbg !1275 ; [#uses=1 type=i32] [debug line = 70:3]
  %tmp_2_cast = add i31 -1, %tmp_3, !dbg !1277    ; [#uses=1 type=i31] [debug line = 71:3]
  %tmp_4 = call i1 @_ssdm_op_BitSelect.i1.i32.i32(i32 %tmp_2, i32 31), !dbg !1277 ; [#uses=1 type=i1] [debug line = 71:3]
  %p_1 = select i1 %tmp_4, i31 15, i31 %tmp_2_cast, !dbg !1277 ; [#uses=1 type=i31] [debug line = 71:3]
  %p_1_cast = zext i31 %p_1 to i32, !dbg !1277    ; [#uses=1 type=i32] [debug line = 71:3]
  %value_assign = select i1 %sw_read, i32 %p_s, i32 %p_1_cast, !dbg !1278 ; [#uses=17 type=i32] [debug line = 250:55@250:77@76:3]
  store i32 %value_assign, i32* @value, align 4, !dbg !1271 ; [debug line = 65:3]
  %tmp_i = icmp eq i32 %value_assign, 0           ; [#uses=1 type=i1]
  %tmp_1_i = select i1 %tmp_i, i7 -64, i7 0, !dbg !1285 ; [#uses=1 type=i7] [debug line = 250:62@250:77@75:14]
  %tmp_2_i = icmp eq i32 %value_assign, 1         ; [#uses=1 type=i1]
  %tmp_3_i = icmp eq i32 %value_assign, 2         ; [#uses=2 type=i1]
  %tmp_4_i = select i1 %tmp_3_i, i7 36, i7 -7, !dbg !1285 ; [#uses=1 type=i7] [debug line = 250:62@250:77@75:14]
  %tmp_5_i = or i1 %tmp_3_i, %tmp_2_i             ; [#uses=1 type=i1]
  %tmp_6_i = select i1 %tmp_5_i, i7 %tmp_4_i, i7 %tmp_1_i, !dbg !1285 ; [#uses=1 type=i7] [debug line = 250:62@250:77@75:14]
  %tmp_7_i = icmp eq i32 %value_assign, 3         ; [#uses=1 type=i1]
  %tmp_8_i = icmp eq i32 %value_assign, 4         ; [#uses=2 type=i1]
  %tmp_9_i_cast_cast = select i1 %tmp_8_i, i7 25, i7 48, !dbg !1285 ; [#uses=1 type=i7] [debug line = 250:62@250:77@75:14]
  %tmp_10_i = or i1 %tmp_8_i, %tmp_7_i            ; [#uses=1 type=i1]
  %tmp_11_i = select i1 %tmp_10_i, i7 %tmp_9_i_cast_cast, i7 %tmp_6_i, !dbg !1285 ; [#uses=1 type=i7] [debug line = 250:62@250:77@75:14]
  %tmp_12_i = icmp eq i32 %value_assign, 5        ; [#uses=1 type=i1]
  %tmp_13_i = icmp eq i32 %value_assign, 6        ; [#uses=2 type=i1]
  %tmp_14_i_cast_cast = select i1 %tmp_13_i, i7 2, i7 18, !dbg !1285 ; [#uses=1 type=i7] [debug line = 250:62@250:77@75:14]
  %tmp_15_i = or i1 %tmp_13_i, %tmp_12_i          ; [#uses=1 type=i1]
  %tmp_16_i = select i1 %tmp_15_i, i7 %tmp_14_i_cast_cast, i7 %tmp_11_i, !dbg !1285 ; [#uses=1 type=i7] [debug line = 250:62@250:77@75:14]
  %tmp_17_i = icmp eq i32 %value_assign, 7        ; [#uses=1 type=i1]
  %tmp_18_i = icmp eq i32 %value_assign, 15       ; [#uses=2 type=i1]
  %tmp_19_i_cast_cast = select i1 %tmp_18_i, i7 14, i7 -8, !dbg !1285 ; [#uses=1 type=i7] [debug line = 250:62@250:77@75:14]
  %tmp_20_i = or i1 %tmp_18_i, %tmp_17_i          ; [#uses=1 type=i1]
  %tmp_21_i = select i1 %tmp_20_i, i7 %tmp_19_i_cast_cast, i7 %tmp_16_i, !dbg !1285 ; [#uses=1 type=i7] [debug line = 250:62@250:77@75:14]
  %tmp_22_i = icmp eq i32 %value_assign, 9        ; [#uses=1 type=i1]
  %tmp_23_i = icmp eq i32 %value_assign, 10       ; [#uses=2 type=i1]
  %tmp_24_i_cast_cast = select i1 %tmp_23_i, i7 8, i7 16, !dbg !1285 ; [#uses=1 type=i7] [debug line = 250:62@250:77@75:14]
  %tmp_25_i = or i1 %tmp_23_i, %tmp_22_i          ; [#uses=1 type=i1]
  %tmp_26_i = select i1 %tmp_25_i, i7 %tmp_24_i_cast_cast, i7 %tmp_21_i, !dbg !1285 ; [#uses=1 type=i7] [debug line = 250:62@250:77@75:14]
  %tmp_27_i = icmp eq i32 %value_assign, 11       ; [#uses=1 type=i1]
  %tmp_28_i = icmp eq i32 %value_assign, 12       ; [#uses=2 type=i1]
  %tmp_29_i = select i1 %tmp_28_i, i7 -58, i7 3, !dbg !1285 ; [#uses=1 type=i7] [debug line = 250:62@250:77@75:14]
  %tmp_30_i = or i1 %tmp_28_i, %tmp_27_i          ; [#uses=1 type=i1]
  %tmp_31_i = select i1 %tmp_30_i, i7 %tmp_29_i, i7 %tmp_26_i, !dbg !1285 ; [#uses=1 type=i7] [debug line = 250:62@250:77@75:14]
  %tmp_32_i = icmp eq i32 %value_assign, 13       ; [#uses=1 type=i1]
  %tmp_33_i = icmp eq i32 %value_assign, 14       ; [#uses=2 type=i1]
  %tmp_34_i_cast_cast = select i1 %tmp_33_i, i7 6, i7 33, !dbg !1285 ; [#uses=1 type=i7] [debug line = 250:62@250:77@75:14]
  %tmp_35_i = or i1 %tmp_33_i, %tmp_32_i          ; [#uses=1 type=i1]
  %value_display_i = select i1 %tmp_35_i, i7 %tmp_34_i_cast_cast, i7 %tmp_31_i, !dbg !1285 ; [#uses=1 type=i7] [debug line = 250:62@250:77@75:14]
  %tmp_5 = trunc i32 %value_assign to i4, !dbg !1291 ; [#uses=1 type=i4] [debug line = 250:62@250:77@76:3]
  br label %0, !dbg !1293                         ; [debug line = 74:7]

; <label>:0                                       ; preds = %1, %_ifconv
  %i = phi i27 [ 0, %_ifconv ], [ %i_1, %1 ]      ; [#uses=2 type=i27]
  %exitcond = icmp eq i27 %i, -34217728, !dbg !1293 ; [#uses=1 type=i1] [debug line = 74:7]
  %empty = call i32 (...)* @_ssdm_op_SpecLoopTripCount(i64 100000000, i64 100000000, i64 100000000) ; [#uses=0 type=i32]
  %i_1 = add i27 %i, 1, !dbg !1294                ; [#uses=1 type=i27] [debug line = 74:29]
  br i1 %exitcond, label %2, label %1, !dbg !1293 ; [debug line = 74:7]

; <label>:1                                       ; preds = %0
  call void @llvm.dbg.value(metadata !{i32 %value_assign}, i64 0, metadata !1295), !dbg !1299 ; [debug line = 3:25@75:14] [debug variable = value]
  call void @llvm.dbg.value(metadata !{i7* %display_V}, i64 0, metadata !1300), !dbg !1303 ; [debug line = 276:53@75:14] [debug variable = ssdm_int<7 + 1024 * 0, false>.V]
  call void @_ssdm_op_Write.ap_auto.i7P(i7* %display_V, i7 %value_display_i), !dbg !1304 ; [debug line = 277:10@75:14]
  call void @llvm.dbg.value(metadata !{i32 %value_assign}, i64 0, metadata !1306), !dbg !1307 ; [debug line = 250:55@76:3] [debug variable = val]
  call void @llvm.dbg.value(metadata !{i32 %value_assign}, i64 0, metadata !1308), !dbg !1278 ; [debug line = 250:55@250:77@76:3] [debug variable = val]
  call void @llvm.dbg.value(metadata !{i4* %led_V}, i64 0, metadata !1309), !dbg !1312 ; [debug line = 276:53@76:3] [debug variable = ssdm_int<4 + 1024 * 0, false>.V]
  call void @_ssdm_op_Write.ap_auto.i4P(i4* %led_V, i4 %tmp_5), !dbg !1313 ; [debug line = 277:10@76:3]
  call void @llvm.dbg.value(metadata !{i27 %i_1}, i64 0, metadata !1315), !dbg !1294 ; [debug line = 74:29] [debug variable = i]
  br label %0, !dbg !1294                         ; [debug line = 74:29]

; <label>:2                                       ; preds = %0
  ret void, !dbg !1316                            ; [debug line = 78:1]
}

!opencl.kernels = !{!0, !7, !13, !13, !15, !15, !21, !13, !13, !15, !15, !24}
!hls.encrypted.func = !{}
!llvm.map.gv = !{!26}

!0 = metadata !{null, metadata !1, metadata !2, metadata !3, metadata !4, metadata !5, metadata !6}
!1 = metadata !{metadata !"kernel_arg_addr_space", i32 0}
!2 = metadata !{metadata !"kernel_arg_access_qual", metadata !"none"}
!3 = metadata !{metadata !"kernel_arg_type", metadata !"int"}
!4 = metadata !{metadata !"kernel_arg_type_qual", metadata !""}
!5 = metadata !{metadata !"kernel_arg_name", metadata !"value"}
!6 = metadata !{metadata !"reqd_work_group_size", i32 1, i32 1, i32 1}
!7 = metadata !{null, metadata !8, metadata !9, metadata !10, metadata !11, metadata !12, metadata !6}
!8 = metadata !{metadata !"kernel_arg_addr_space", i32 0, i32 1, i32 1}
!9 = metadata !{metadata !"kernel_arg_access_qual", metadata !"none", metadata !"none", metadata !"none"}
!10 = metadata !{metadata !"kernel_arg_type", metadata !"_Bool", metadata !"ap_uint<4>*", metadata !"ap_uint<7>*"}
!11 = metadata !{metadata !"kernel_arg_type_qual", metadata !"", metadata !"", metadata !""}
!12 = metadata !{metadata !"kernel_arg_name", metadata !"sw", metadata !"led", metadata !"display"}
!13 = metadata !{null, metadata !1, metadata !2, metadata !3, metadata !4, metadata !14, metadata !6}
!14 = metadata !{metadata !"kernel_arg_name", metadata !"val"}
!15 = metadata !{null, metadata !16, metadata !17, metadata !18, metadata !19, metadata !20, metadata !6}
!16 = metadata !{metadata !"kernel_arg_addr_space"}
!17 = metadata !{metadata !"kernel_arg_access_qual"}
!18 = metadata !{metadata !"kernel_arg_type"}
!19 = metadata !{metadata !"kernel_arg_type_qual"}
!20 = metadata !{metadata !"kernel_arg_name"}
!21 = metadata !{null, metadata !1, metadata !2, metadata !22, metadata !4, metadata !23, metadata !6}
!22 = metadata !{metadata !"kernel_arg_type", metadata !"const ap_uint<4> &"}
!23 = metadata !{metadata !"kernel_arg_name", metadata !"op2"}
!24 = metadata !{null, metadata !1, metadata !2, metadata !25, metadata !4, metadata !23, metadata !6}
!25 = metadata !{metadata !"kernel_arg_type", metadata !"const ap_uint<7> &"}
!26 = metadata !{metadata !27, [1 x i32]* @llvm_global_ctors_0}
!27 = metadata !{metadata !28}
!28 = metadata !{i32 0, i32 31, metadata !29}
!29 = metadata !{metadata !30}
!30 = metadata !{metadata !"llvm.global_ctors.0", metadata !31, metadata !"", i32 0, i32 31}
!31 = metadata !{metadata !32}
!32 = metadata !{i32 0, i32 0, i32 1}
!33 = metadata !{metadata !34}
!34 = metadata !{i32 0, i32 0, metadata !35}
!35 = metadata !{metadata !36}
!36 = metadata !{metadata !"sw", metadata !37, metadata !"bool", i32 0, i32 0}
!37 = metadata !{metadata !38}
!38 = metadata !{i32 0, i32 0, i32 0}
!39 = metadata !{metadata !40}
!40 = metadata !{i32 0, i32 3, metadata !41}
!41 = metadata !{metadata !42}
!42 = metadata !{metadata !"led.V", metadata !31, metadata !"uint4", i32 0, i32 3}
!43 = metadata !{metadata !44}
!44 = metadata !{i32 0, i32 6, metadata !45}
!45 = metadata !{metadata !46}
!46 = metadata !{metadata !"display.V", metadata !31, metadata !"uint7", i32 0, i32 6}
!47 = metadata !{i32 786689, metadata !48, metadata !"sw", metadata !49, i32 16777276, metadata !52, i32 0, i32 0} ; [ DW_TAG_arg_variable ]
!48 = metadata !{i32 786478, i32 0, metadata !49, metadata !"Zevenseg", metadata !"Zevenseg", metadata !"_Z8ZevensegbP7ap_uintILi4EEPS_ILi7EE", metadata !49, i32 60, metadata !50, i1 false, i1 true, i32 0, i32 0, null, i32 256, i1 false, null, null, null, metadata !71, i32 60} ; [ DW_TAG_subprogram ]
!49 = metadata !{i32 786473, metadata !"Zevenseg.cpp", metadata !"C:\5CUsers\5C11401393\5CDesktop\5Cbachelorproef\5CVivadoHLS\5CDemo", null} ; [ DW_TAG_file_type ]
!50 = metadata !{i32 786453, i32 0, metadata !"", i32 0, i32 0, i64 0, i64 0, i64 0, i32 0, null, metadata !51, i32 0, i32 0} ; [ DW_TAG_subroutine_type ]
!51 = metadata !{null, metadata !52, metadata !53, metadata !411}
!52 = metadata !{i32 786468, null, metadata !"bool", null, i32 0, i64 8, i64 8, i64 0, i32 0, i32 2} ; [ DW_TAG_base_type ]
!53 = metadata !{i32 786447, null, metadata !"", null, i32 0, i64 32, i64 32, i64 0, i32 0, metadata !54} ; [ DW_TAG_pointer_type ]
!54 = metadata !{i32 786434, null, metadata !"ap_uint<4>", metadata !55, i32 180, i64 8, i64 8, i32 0, i32 0, null, metadata !56, i32 0, null, metadata !410} ; [ DW_TAG_class_type ]
!55 = metadata !{i32 786473, metadata !"C:/Xilinx/Vivado_HLS/2016.4/common/technology/autopilot\5Cap_int.h", metadata !"C:\5CUsers\5C11401393\5CDesktop\5Cbachelorproef\5CVivadoHLS\5CDemo", null} ; [ DW_TAG_file_type ]
!56 = metadata !{metadata !57, metadata !341, metadata !345, metadata !348, metadata !351, metadata !354, metadata !357, metadata !360, metadata !363, metadata !366, metadata !369, metadata !372, metadata !375, metadata !378, metadata !381, metadata !384, metadata !387, metadata !390, metadata !397, metadata !402, metadata !406, metadata !409}
!57 = metadata !{i32 786460, metadata !54, null, metadata !55, i32 0, i64 0, i64 0, i64 0, i32 0, metadata !58} ; [ DW_TAG_inheritance ]
!58 = metadata !{i32 786434, null, metadata !"ap_int_base<4, false, true>", metadata !59, i32 1397, i64 8, i64 8, i32 0, i32 0, null, metadata !60, i32 0, null, metadata !338} ; [ DW_TAG_class_type ]
!59 = metadata !{i32 786473, metadata !"C:/Xilinx/Vivado_HLS/2016.4/common/technology/autopilot/ap_int_syn.h", metadata !"C:\5CUsers\5C11401393\5CDesktop\5Cbachelorproef\5CVivadoHLS\5CDemo", null} ; [ DW_TAG_file_type ]
!60 = metadata !{metadata !61, metadata !77, metadata !81, metadata !89, metadata !95, metadata !98, metadata !102, metadata !106, metadata !110, metadata !114, metadata !117, metadata !121, metadata !125, metadata !129, metadata !134, metadata !139, metadata !143, metadata !147, metadata !153, metadata !156, metadata !160, metadata !163, metadata !166, metadata !167, metadata !171, metadata !174, metadata !177, metadata !180, metadata !183, metadata !186, metadata !189, metadata !192, metadata !195, metadata !198, metadata !201, metadata !204, metadata !214, metadata !217, metadata !220, metadata !223, metadata !226, metadata !229, metadata !232, metadata !235, metadata !238, metadata !241, metadata !244, metadata !247, metadata !250, metadata !251, metadata !255, metadata !258, metadata !259, metadata !260, metadata !261, metadata !262, metadata !263, metadata !266, metadata !267, metadata !270, metadata !271, metadata !272, metadata !273, metadata !274, metadata !275, metadata !278, metadata !279, metadata !280, metadata !283, metadata !284, metadata !287, metadata !288, metadata !292, metadata !296, metadata !297, metadata !300, metadata !301, metadata !305, metadata !306, metadata !307, metadata !308, metadata !311, metadata !312, metadata !313, metadata !314, metadata !315, metadata !316, metadata !317, metadata !318, metadata !319, metadata !320, metadata !321, metadata !322, metadata !332, metadata !335}
!61 = metadata !{i32 786460, metadata !58, null, metadata !59, i32 0, i64 0, i64 0, i64 0, i32 0, metadata !62} ; [ DW_TAG_inheritance ]
!62 = metadata !{i32 786434, null, metadata !"ssdm_int<4 + 1024 * 0, false>", metadata !63, i32 6, i64 8, i64 8, i32 0, i32 0, null, metadata !64, i32 0, null, metadata !73} ; [ DW_TAG_class_type ]
!63 = metadata !{i32 786473, metadata !"C:/Xilinx/Vivado_HLS/2016.4/common/technology/autopilot/etc/autopilot_dt.def", metadata !"C:\5CUsers\5C11401393\5CDesktop\5Cbachelorproef\5CVivadoHLS\5CDemo", null} ; [ DW_TAG_file_type ]
!64 = metadata !{metadata !65, metadata !67}
!65 = metadata !{i32 786445, metadata !62, metadata !"V", metadata !63, i32 6, i64 4, i64 4, i64 0, i32 0, metadata !66} ; [ DW_TAG_member ]
!66 = metadata !{i32 786468, null, metadata !"uint4", null, i32 0, i64 4, i64 4, i64 0, i32 0, i32 7} ; [ DW_TAG_base_type ]
!67 = metadata !{i32 786478, i32 0, metadata !62, metadata !"ssdm_int", metadata !"ssdm_int", metadata !"", metadata !63, i32 6, metadata !68, i1 false, i1 false, i32 0, i32 0, null, i32 256, i1 false, null, null, i32 0, metadata !71, i32 6} ; [ DW_TAG_subprogram ]
!68 = metadata !{i32 786453, i32 0, metadata !"", i32 0, i32 0, i64 0, i64 0, i64 0, i32 0, null, metadata !69, i32 0, i32 0} ; [ DW_TAG_subroutine_type ]
!69 = metadata !{null, metadata !70}
!70 = metadata !{i32 786447, i32 0, metadata !"", i32 0, i32 0, i64 32, i64 32, i64 0, i32 64, metadata !62} ; [ DW_TAG_pointer_type ]
!71 = metadata !{metadata !72}
!72 = metadata !{i32 786468}                      ; [ DW_TAG_base_type ]
!73 = metadata !{metadata !74, metadata !76}
!74 = metadata !{i32 786480, null, metadata !"_AP_N", metadata !75, i64 4, null, i32 0, i32 0} ; [ DW_TAG_template_value_parameter ]
!75 = metadata !{i32 786468, null, metadata !"int", null, i32 0, i64 32, i64 32, i64 0, i32 0, i32 5} ; [ DW_TAG_base_type ]
!76 = metadata !{i32 786480, null, metadata !"_AP_S", metadata !52, i64 0, null, i32 0, i32 0} ; [ DW_TAG_template_value_parameter ]
!77 = metadata !{i32 786478, i32 0, metadata !58, metadata !"ap_int_base", metadata !"ap_int_base", metadata !"", metadata !59, i32 1438, metadata !78, i1 false, i1 false, i32 0, i32 0, null, i32 256, i1 false, null, null, i32 0, metadata !71, i32 1438} ; [ DW_TAG_subprogram ]
!78 = metadata !{i32 786453, i32 0, metadata !"", i32 0, i32 0, i64 0, i64 0, i64 0, i32 0, null, metadata !79, i32 0, i32 0} ; [ DW_TAG_subroutine_type ]
!79 = metadata !{null, metadata !80}
!80 = metadata !{i32 786447, i32 0, metadata !"", i32 0, i32 0, i64 32, i64 32, i64 0, i32 64, metadata !58} ; [ DW_TAG_pointer_type ]
!81 = metadata !{i32 786478, i32 0, metadata !58, metadata !"ap_int_base<4, false>", metadata !"ap_int_base<4, false>", metadata !"", metadata !59, i32 1450, metadata !82, i1 false, i1 false, i32 0, i32 0, null, i32 256, i1 false, null, metadata !86, i32 0, metadata !71, i32 1450} ; [ DW_TAG_subprogram ]
!82 = metadata !{i32 786453, i32 0, metadata !"", i32 0, i32 0, i64 0, i64 0, i64 0, i32 0, null, metadata !83, i32 0, i32 0} ; [ DW_TAG_subroutine_type ]
!83 = metadata !{null, metadata !80, metadata !84}
!84 = metadata !{i32 786448, null, null, null, i32 0, i64 0, i64 0, i64 0, i32 0, metadata !85} ; [ DW_TAG_reference_type ]
!85 = metadata !{i32 786470, null, metadata !"", null, i32 0, i64 0, i64 0, i64 0, i32 0, metadata !58} ; [ DW_TAG_const_type ]
!86 = metadata !{metadata !87, metadata !88}
!87 = metadata !{i32 786480, null, metadata !"_AP_W2", metadata !75, i64 4, null, i32 0, i32 0} ; [ DW_TAG_template_value_parameter ]
!88 = metadata !{i32 786480, null, metadata !"_AP_S2", metadata !52, i64 0, null, i32 0, i32 0} ; [ DW_TAG_template_value_parameter ]
!89 = metadata !{i32 786478, i32 0, metadata !58, metadata !"ap_int_base<4, false>", metadata !"ap_int_base<4, false>", metadata !"", metadata !59, i32 1453, metadata !90, i1 false, i1 false, i32 0, i32 0, null, i32 256, i1 false, null, metadata !86, i32 0, metadata !71, i32 1453} ; [ DW_TAG_subprogram ]
!90 = metadata !{i32 786453, i32 0, metadata !"", i32 0, i32 0, i64 0, i64 0, i64 0, i32 0, null, metadata !91, i32 0, i32 0} ; [ DW_TAG_subroutine_type ]
!91 = metadata !{null, metadata !80, metadata !92}
!92 = metadata !{i32 786448, null, null, null, i32 0, i64 0, i64 0, i64 0, i32 0, metadata !93} ; [ DW_TAG_reference_type ]
!93 = metadata !{i32 786470, null, metadata !"", null, i32 0, i64 0, i64 0, i64 0, i32 0, metadata !94} ; [ DW_TAG_const_type ]
!94 = metadata !{i32 786485, null, metadata !"", null, i32 0, i64 0, i64 0, i64 0, i32 0, metadata !58} ; [ DW_TAG_volatile_type ]
!95 = metadata !{i32 786478, i32 0, metadata !58, metadata !"ap_int_base", metadata !"ap_int_base", metadata !"", metadata !59, i32 1460, metadata !96, i1 false, i1 false, i32 0, i32 0, null, i32 384, i1 false, null, null, i32 0, metadata !71, i32 1460} ; [ DW_TAG_subprogram ]
!96 = metadata !{i32 786453, i32 0, metadata !"", i32 0, i32 0, i64 0, i64 0, i64 0, i32 0, null, metadata !97, i32 0, i32 0} ; [ DW_TAG_subroutine_type ]
!97 = metadata !{null, metadata !80, metadata !52}
!98 = metadata !{i32 786478, i32 0, metadata !58, metadata !"ap_int_base", metadata !"ap_int_base", metadata !"", metadata !59, i32 1461, metadata !99, i1 false, i1 false, i32 0, i32 0, null, i32 384, i1 false, null, null, i32 0, metadata !71, i32 1461} ; [ DW_TAG_subprogram ]
!99 = metadata !{i32 786453, i32 0, metadata !"", i32 0, i32 0, i64 0, i64 0, i64 0, i32 0, null, metadata !100, i32 0, i32 0} ; [ DW_TAG_subroutine_type ]
!100 = metadata !{null, metadata !80, metadata !101}
!101 = metadata !{i32 786468, null, metadata !"signed char", null, i32 0, i64 8, i64 8, i64 0, i32 0, i32 6} ; [ DW_TAG_base_type ]
!102 = metadata !{i32 786478, i32 0, metadata !58, metadata !"ap_int_base", metadata !"ap_int_base", metadata !"", metadata !59, i32 1462, metadata !103, i1 false, i1 false, i32 0, i32 0, null, i32 384, i1 false, null, null, i32 0, metadata !71, i32 1462} ; [ DW_TAG_subprogram ]
!103 = metadata !{i32 786453, i32 0, metadata !"", i32 0, i32 0, i64 0, i64 0, i64 0, i32 0, null, metadata !104, i32 0, i32 0} ; [ DW_TAG_subroutine_type ]
!104 = metadata !{null, metadata !80, metadata !105}
!105 = metadata !{i32 786468, null, metadata !"unsigned char", null, i32 0, i64 8, i64 8, i64 0, i32 0, i32 8} ; [ DW_TAG_base_type ]
!106 = metadata !{i32 786478, i32 0, metadata !58, metadata !"ap_int_base", metadata !"ap_int_base", metadata !"", metadata !59, i32 1463, metadata !107, i1 false, i1 false, i32 0, i32 0, null, i32 384, i1 false, null, null, i32 0, metadata !71, i32 1463} ; [ DW_TAG_subprogram ]
!107 = metadata !{i32 786453, i32 0, metadata !"", i32 0, i32 0, i64 0, i64 0, i64 0, i32 0, null, metadata !108, i32 0, i32 0} ; [ DW_TAG_subroutine_type ]
!108 = metadata !{null, metadata !80, metadata !109}
!109 = metadata !{i32 786468, null, metadata !"short", null, i32 0, i64 16, i64 16, i64 0, i32 0, i32 5} ; [ DW_TAG_base_type ]
!110 = metadata !{i32 786478, i32 0, metadata !58, metadata !"ap_int_base", metadata !"ap_int_base", metadata !"", metadata !59, i32 1464, metadata !111, i1 false, i1 false, i32 0, i32 0, null, i32 384, i1 false, null, null, i32 0, metadata !71, i32 1464} ; [ DW_TAG_subprogram ]
!111 = metadata !{i32 786453, i32 0, metadata !"", i32 0, i32 0, i64 0, i64 0, i64 0, i32 0, null, metadata !112, i32 0, i32 0} ; [ DW_TAG_subroutine_type ]
!112 = metadata !{null, metadata !80, metadata !113}
!113 = metadata !{i32 786468, null, metadata !"unsigned short", null, i32 0, i64 16, i64 16, i64 0, i32 0, i32 7} ; [ DW_TAG_base_type ]
!114 = metadata !{i32 786478, i32 0, metadata !58, metadata !"ap_int_base", metadata !"ap_int_base", metadata !"", metadata !59, i32 1465, metadata !115, i1 false, i1 false, i32 0, i32 0, null, i32 384, i1 false, null, null, i32 0, metadata !71, i32 1465} ; [ DW_TAG_subprogram ]
!115 = metadata !{i32 786453, i32 0, metadata !"", i32 0, i32 0, i64 0, i64 0, i64 0, i32 0, null, metadata !116, i32 0, i32 0} ; [ DW_TAG_subroutine_type ]
!116 = metadata !{null, metadata !80, metadata !75}
!117 = metadata !{i32 786478, i32 0, metadata !58, metadata !"ap_int_base", metadata !"ap_int_base", metadata !"", metadata !59, i32 1466, metadata !118, i1 false, i1 false, i32 0, i32 0, null, i32 384, i1 false, null, null, i32 0, metadata !71, i32 1466} ; [ DW_TAG_subprogram ]
!118 = metadata !{i32 786453, i32 0, metadata !"", i32 0, i32 0, i64 0, i64 0, i64 0, i32 0, null, metadata !119, i32 0, i32 0} ; [ DW_TAG_subroutine_type ]
!119 = metadata !{null, metadata !80, metadata !120}
!120 = metadata !{i32 786468, null, metadata !"unsigned int", null, i32 0, i64 32, i64 32, i64 0, i32 0, i32 7} ; [ DW_TAG_base_type ]
!121 = metadata !{i32 786478, i32 0, metadata !58, metadata !"ap_int_base", metadata !"ap_int_base", metadata !"", metadata !59, i32 1467, metadata !122, i1 false, i1 false, i32 0, i32 0, null, i32 384, i1 false, null, null, i32 0, metadata !71, i32 1467} ; [ DW_TAG_subprogram ]
!122 = metadata !{i32 786453, i32 0, metadata !"", i32 0, i32 0, i64 0, i64 0, i64 0, i32 0, null, metadata !123, i32 0, i32 0} ; [ DW_TAG_subroutine_type ]
!123 = metadata !{null, metadata !80, metadata !124}
!124 = metadata !{i32 786468, null, metadata !"long int", null, i32 0, i64 32, i64 32, i64 0, i32 0, i32 5} ; [ DW_TAG_base_type ]
!125 = metadata !{i32 786478, i32 0, metadata !58, metadata !"ap_int_base", metadata !"ap_int_base", metadata !"", metadata !59, i32 1468, metadata !126, i1 false, i1 false, i32 0, i32 0, null, i32 384, i1 false, null, null, i32 0, metadata !71, i32 1468} ; [ DW_TAG_subprogram ]
!126 = metadata !{i32 786453, i32 0, metadata !"", i32 0, i32 0, i64 0, i64 0, i64 0, i32 0, null, metadata !127, i32 0, i32 0} ; [ DW_TAG_subroutine_type ]
!127 = metadata !{null, metadata !80, metadata !128}
!128 = metadata !{i32 786468, null, metadata !"long unsigned int", null, i32 0, i64 32, i64 32, i64 0, i32 0, i32 7} ; [ DW_TAG_base_type ]
!129 = metadata !{i32 786478, i32 0, metadata !58, metadata !"ap_int_base", metadata !"ap_int_base", metadata !"", metadata !59, i32 1469, metadata !130, i1 false, i1 false, i32 0, i32 0, null, i32 384, i1 false, null, null, i32 0, metadata !71, i32 1469} ; [ DW_TAG_subprogram ]
!130 = metadata !{i32 786453, i32 0, metadata !"", i32 0, i32 0, i64 0, i64 0, i64 0, i32 0, null, metadata !131, i32 0, i32 0} ; [ DW_TAG_subroutine_type ]
!131 = metadata !{null, metadata !80, metadata !132}
!132 = metadata !{i32 786454, null, metadata !"ap_slong", metadata !59, i32 111, i64 0, i64 0, i64 0, i32 0, metadata !133} ; [ DW_TAG_typedef ]
!133 = metadata !{i32 786468, null, metadata !"long long int", null, i32 0, i64 64, i64 64, i64 0, i32 0, i32 5} ; [ DW_TAG_base_type ]
!134 = metadata !{i32 786478, i32 0, metadata !58, metadata !"ap_int_base", metadata !"ap_int_base", metadata !"", metadata !59, i32 1470, metadata !135, i1 false, i1 false, i32 0, i32 0, null, i32 384, i1 false, null, null, i32 0, metadata !71, i32 1470} ; [ DW_TAG_subprogram ]
!135 = metadata !{i32 786453, i32 0, metadata !"", i32 0, i32 0, i64 0, i64 0, i64 0, i32 0, null, metadata !136, i32 0, i32 0} ; [ DW_TAG_subroutine_type ]
!136 = metadata !{null, metadata !80, metadata !137}
!137 = metadata !{i32 786454, null, metadata !"ap_ulong", metadata !59, i32 110, i64 0, i64 0, i64 0, i32 0, metadata !138} ; [ DW_TAG_typedef ]
!138 = metadata !{i32 786468, null, metadata !"long long unsigned int", null, i32 0, i64 64, i64 64, i64 0, i32 0, i32 7} ; [ DW_TAG_base_type ]
!139 = metadata !{i32 786478, i32 0, metadata !58, metadata !"ap_int_base", metadata !"ap_int_base", metadata !"", metadata !59, i32 1471, metadata !140, i1 false, i1 false, i32 0, i32 0, null, i32 384, i1 false, null, null, i32 0, metadata !71, i32 1471} ; [ DW_TAG_subprogram ]
!140 = metadata !{i32 786453, i32 0, metadata !"", i32 0, i32 0, i64 0, i64 0, i64 0, i32 0, null, metadata !141, i32 0, i32 0} ; [ DW_TAG_subroutine_type ]
!141 = metadata !{null, metadata !80, metadata !142}
!142 = metadata !{i32 786468, null, metadata !"float", null, i32 0, i64 32, i64 32, i64 0, i32 0, i32 4} ; [ DW_TAG_base_type ]
!143 = metadata !{i32 786478, i32 0, metadata !58, metadata !"ap_int_base", metadata !"ap_int_base", metadata !"", metadata !59, i32 1472, metadata !144, i1 false, i1 false, i32 0, i32 0, null, i32 384, i1 false, null, null, i32 0, metadata !71, i32 1472} ; [ DW_TAG_subprogram ]
!144 = metadata !{i32 786453, i32 0, metadata !"", i32 0, i32 0, i64 0, i64 0, i64 0, i32 0, null, metadata !145, i32 0, i32 0} ; [ DW_TAG_subroutine_type ]
!145 = metadata !{null, metadata !80, metadata !146}
!146 = metadata !{i32 786468, null, metadata !"double", null, i32 0, i64 64, i64 64, i64 0, i32 0, i32 4} ; [ DW_TAG_base_type ]
!147 = metadata !{i32 786478, i32 0, metadata !58, metadata !"ap_int_base", metadata !"ap_int_base", metadata !"", metadata !59, i32 1499, metadata !148, i1 false, i1 false, i32 0, i32 0, null, i32 256, i1 false, null, null, i32 0, metadata !71, i32 1499} ; [ DW_TAG_subprogram ]
!148 = metadata !{i32 786453, i32 0, metadata !"", i32 0, i32 0, i64 0, i64 0, i64 0, i32 0, null, metadata !149, i32 0, i32 0} ; [ DW_TAG_subroutine_type ]
!149 = metadata !{null, metadata !80, metadata !150}
!150 = metadata !{i32 786447, null, metadata !"", null, i32 0, i64 32, i64 32, i64 0, i32 0, metadata !151} ; [ DW_TAG_pointer_type ]
!151 = metadata !{i32 786470, null, metadata !"", null, i32 0, i64 0, i64 0, i64 0, i32 0, metadata !152} ; [ DW_TAG_const_type ]
!152 = metadata !{i32 786468, null, metadata !"char", null, i32 0, i64 8, i64 8, i64 0, i32 0, i32 6} ; [ DW_TAG_base_type ]
!153 = metadata !{i32 786478, i32 0, metadata !58, metadata !"ap_int_base", metadata !"ap_int_base", metadata !"", metadata !59, i32 1506, metadata !154, i1 false, i1 false, i32 0, i32 0, null, i32 256, i1 false, null, null, i32 0, metadata !71, i32 1506} ; [ DW_TAG_subprogram ]
!154 = metadata !{i32 786453, i32 0, metadata !"", i32 0, i32 0, i64 0, i64 0, i64 0, i32 0, null, metadata !155, i32 0, i32 0} ; [ DW_TAG_subroutine_type ]
!155 = metadata !{null, metadata !80, metadata !150, metadata !101}
!156 = metadata !{i32 786478, i32 0, metadata !58, metadata !"read", metadata !"read", metadata !"_ZNV11ap_int_baseILi4ELb0ELb1EE4readEv", metadata !59, i32 1527, metadata !157, i1 false, i1 false, i32 0, i32 0, null, i32 256, i1 false, null, null, i32 0, metadata !71, i32 1527} ; [ DW_TAG_subprogram ]
!157 = metadata !{i32 786453, i32 0, metadata !"", i32 0, i32 0, i64 0, i64 0, i64 0, i32 0, null, metadata !158, i32 0, i32 0} ; [ DW_TAG_subroutine_type ]
!158 = metadata !{metadata !58, metadata !159}
!159 = metadata !{i32 786447, i32 0, metadata !"", i32 0, i32 0, i64 32, i64 32, i64 0, i32 64, metadata !94} ; [ DW_TAG_pointer_type ]
!160 = metadata !{i32 786478, i32 0, metadata !58, metadata !"write", metadata !"write", metadata !"_ZNV11ap_int_baseILi4ELb0ELb1EE5writeERKS0_", metadata !59, i32 1533, metadata !161, i1 false, i1 false, i32 0, i32 0, null, i32 256, i1 false, null, null, i32 0, metadata !71, i32 1533} ; [ DW_TAG_subprogram ]
!161 = metadata !{i32 786453, i32 0, metadata !"", i32 0, i32 0, i64 0, i64 0, i64 0, i32 0, null, metadata !162, i32 0, i32 0} ; [ DW_TAG_subroutine_type ]
!162 = metadata !{null, metadata !159, metadata !84}
!163 = metadata !{i32 786478, i32 0, metadata !58, metadata !"operator=", metadata !"operator=", metadata !"_ZNV11ap_int_baseILi4ELb0ELb1EEaSERVKS0_", metadata !59, i32 1545, metadata !164, i1 false, i1 false, i32 0, i32 0, null, i32 256, i1 false, null, null, i32 0, metadata !71, i32 1545} ; [ DW_TAG_subprogram ]
!164 = metadata !{i32 786453, i32 0, metadata !"", i32 0, i32 0, i64 0, i64 0, i64 0, i32 0, null, metadata !165, i32 0, i32 0} ; [ DW_TAG_subroutine_type ]
!165 = metadata !{null, metadata !159, metadata !92}
!166 = metadata !{i32 786478, i32 0, metadata !58, metadata !"operator=", metadata !"operator=", metadata !"_ZNV11ap_int_baseILi4ELb0ELb1EEaSERKS0_", metadata !59, i32 1554, metadata !161, i1 false, i1 false, i32 0, i32 0, null, i32 256, i1 false, null, null, i32 0, metadata !71, i32 1554} ; [ DW_TAG_subprogram ]
!167 = metadata !{i32 786478, i32 0, metadata !58, metadata !"operator=", metadata !"operator=", metadata !"_ZN11ap_int_baseILi4ELb0ELb1EEaSERVKS0_", metadata !59, i32 1577, metadata !168, i1 false, i1 false, i32 0, i32 0, null, i32 256, i1 false, null, null, i32 0, metadata !71, i32 1577} ; [ DW_TAG_subprogram ]
!168 = metadata !{i32 786453, i32 0, metadata !"", i32 0, i32 0, i64 0, i64 0, i64 0, i32 0, null, metadata !169, i32 0, i32 0} ; [ DW_TAG_subroutine_type ]
!169 = metadata !{metadata !170, metadata !80, metadata !92}
!170 = metadata !{i32 786448, null, null, null, i32 0, i64 0, i64 0, i64 0, i32 0, metadata !58} ; [ DW_TAG_reference_type ]
!171 = metadata !{i32 786478, i32 0, metadata !58, metadata !"operator=", metadata !"operator=", metadata !"_ZN11ap_int_baseILi4ELb0ELb1EEaSERKS0_", metadata !59, i32 1582, metadata !172, i1 false, i1 false, i32 0, i32 0, null, i32 256, i1 false, null, null, i32 0, metadata !71, i32 1582} ; [ DW_TAG_subprogram ]
!172 = metadata !{i32 786453, i32 0, metadata !"", i32 0, i32 0, i64 0, i64 0, i64 0, i32 0, null, metadata !173, i32 0, i32 0} ; [ DW_TAG_subroutine_type ]
!173 = metadata !{metadata !170, metadata !80, metadata !84}
!174 = metadata !{i32 786478, i32 0, metadata !58, metadata !"operator=", metadata !"operator=", metadata !"_ZN11ap_int_baseILi4ELb0ELb1EEaSEPKc", metadata !59, i32 1586, metadata !175, i1 false, i1 false, i32 0, i32 0, null, i32 256, i1 false, null, null, i32 0, metadata !71, i32 1586} ; [ DW_TAG_subprogram ]
!175 = metadata !{i32 786453, i32 0, metadata !"", i32 0, i32 0, i64 0, i64 0, i64 0, i32 0, null, metadata !176, i32 0, i32 0} ; [ DW_TAG_subroutine_type ]
!176 = metadata !{metadata !170, metadata !80, metadata !150}
!177 = metadata !{i32 786478, i32 0, metadata !58, metadata !"set", metadata !"set", metadata !"_ZN11ap_int_baseILi4ELb0ELb1EE3setEPKca", metadata !59, i32 1594, metadata !178, i1 false, i1 false, i32 0, i32 0, null, i32 256, i1 false, null, null, i32 0, metadata !71, i32 1594} ; [ DW_TAG_subprogram ]
!178 = metadata !{i32 786453, i32 0, metadata !"", i32 0, i32 0, i64 0, i64 0, i64 0, i32 0, null, metadata !179, i32 0, i32 0} ; [ DW_TAG_subroutine_type ]
!179 = metadata !{metadata !170, metadata !80, metadata !150, metadata !101}
!180 = metadata !{i32 786478, i32 0, metadata !58, metadata !"operator=", metadata !"operator=", metadata !"_ZN11ap_int_baseILi4ELb0ELb1EEaSEa", metadata !59, i32 1608, metadata !181, i1 false, i1 false, i32 0, i32 0, null, i32 256, i1 false, null, null, i32 0, metadata !71, i32 1608} ; [ DW_TAG_subprogram ]
!181 = metadata !{i32 786453, i32 0, metadata !"", i32 0, i32 0, i64 0, i64 0, i64 0, i32 0, null, metadata !182, i32 0, i32 0} ; [ DW_TAG_subroutine_type ]
!182 = metadata !{metadata !170, metadata !80, metadata !101}
!183 = metadata !{i32 786478, i32 0, metadata !58, metadata !"operator=", metadata !"operator=", metadata !"_ZN11ap_int_baseILi4ELb0ELb1EEaSEh", metadata !59, i32 1609, metadata !184, i1 false, i1 false, i32 0, i32 0, null, i32 256, i1 false, null, null, i32 0, metadata !71, i32 1609} ; [ DW_TAG_subprogram ]
!184 = metadata !{i32 786453, i32 0, metadata !"", i32 0, i32 0, i64 0, i64 0, i64 0, i32 0, null, metadata !185, i32 0, i32 0} ; [ DW_TAG_subroutine_type ]
!185 = metadata !{metadata !170, metadata !80, metadata !105}
!186 = metadata !{i32 786478, i32 0, metadata !58, metadata !"operator=", metadata !"operator=", metadata !"_ZN11ap_int_baseILi4ELb0ELb1EEaSEs", metadata !59, i32 1610, metadata !187, i1 false, i1 false, i32 0, i32 0, null, i32 256, i1 false, null, null, i32 0, metadata !71, i32 1610} ; [ DW_TAG_subprogram ]
!187 = metadata !{i32 786453, i32 0, metadata !"", i32 0, i32 0, i64 0, i64 0, i64 0, i32 0, null, metadata !188, i32 0, i32 0} ; [ DW_TAG_subroutine_type ]
!188 = metadata !{metadata !170, metadata !80, metadata !109}
!189 = metadata !{i32 786478, i32 0, metadata !58, metadata !"operator=", metadata !"operator=", metadata !"_ZN11ap_int_baseILi4ELb0ELb1EEaSEt", metadata !59, i32 1611, metadata !190, i1 false, i1 false, i32 0, i32 0, null, i32 256, i1 false, null, null, i32 0, metadata !71, i32 1611} ; [ DW_TAG_subprogram ]
!190 = metadata !{i32 786453, i32 0, metadata !"", i32 0, i32 0, i64 0, i64 0, i64 0, i32 0, null, metadata !191, i32 0, i32 0} ; [ DW_TAG_subroutine_type ]
!191 = metadata !{metadata !170, metadata !80, metadata !113}
!192 = metadata !{i32 786478, i32 0, metadata !58, metadata !"operator=", metadata !"operator=", metadata !"_ZN11ap_int_baseILi4ELb0ELb1EEaSEi", metadata !59, i32 1612, metadata !193, i1 false, i1 false, i32 0, i32 0, null, i32 256, i1 false, null, null, i32 0, metadata !71, i32 1612} ; [ DW_TAG_subprogram ]
!193 = metadata !{i32 786453, i32 0, metadata !"", i32 0, i32 0, i64 0, i64 0, i64 0, i32 0, null, metadata !194, i32 0, i32 0} ; [ DW_TAG_subroutine_type ]
!194 = metadata !{metadata !170, metadata !80, metadata !75}
!195 = metadata !{i32 786478, i32 0, metadata !58, metadata !"operator=", metadata !"operator=", metadata !"_ZN11ap_int_baseILi4ELb0ELb1EEaSEj", metadata !59, i32 1613, metadata !196, i1 false, i1 false, i32 0, i32 0, null, i32 256, i1 false, null, null, i32 0, metadata !71, i32 1613} ; [ DW_TAG_subprogram ]
!196 = metadata !{i32 786453, i32 0, metadata !"", i32 0, i32 0, i64 0, i64 0, i64 0, i32 0, null, metadata !197, i32 0, i32 0} ; [ DW_TAG_subroutine_type ]
!197 = metadata !{metadata !170, metadata !80, metadata !120}
!198 = metadata !{i32 786478, i32 0, metadata !58, metadata !"operator=", metadata !"operator=", metadata !"_ZN11ap_int_baseILi4ELb0ELb1EEaSEx", metadata !59, i32 1614, metadata !199, i1 false, i1 false, i32 0, i32 0, null, i32 256, i1 false, null, null, i32 0, metadata !71, i32 1614} ; [ DW_TAG_subprogram ]
!199 = metadata !{i32 786453, i32 0, metadata !"", i32 0, i32 0, i64 0, i64 0, i64 0, i32 0, null, metadata !200, i32 0, i32 0} ; [ DW_TAG_subroutine_type ]
!200 = metadata !{metadata !170, metadata !80, metadata !132}
!201 = metadata !{i32 786478, i32 0, metadata !58, metadata !"operator=", metadata !"operator=", metadata !"_ZN11ap_int_baseILi4ELb0ELb1EEaSEy", metadata !59, i32 1615, metadata !202, i1 false, i1 false, i32 0, i32 0, null, i32 256, i1 false, null, null, i32 0, metadata !71, i32 1615} ; [ DW_TAG_subprogram ]
!202 = metadata !{i32 786453, i32 0, metadata !"", i32 0, i32 0, i64 0, i64 0, i64 0, i32 0, null, metadata !203, i32 0, i32 0} ; [ DW_TAG_subroutine_type ]
!203 = metadata !{metadata !170, metadata !80, metadata !137}
!204 = metadata !{i32 786478, i32 0, metadata !58, metadata !"operator unsigned char", metadata !"operator unsigned char", metadata !"_ZNK11ap_int_baseILi4ELb0ELb1EEcvhEv", metadata !59, i32 1653, metadata !205, i1 false, i1 false, i32 0, i32 0, null, i32 256, i1 false, null, null, i32 0, metadata !71, i32 1653} ; [ DW_TAG_subprogram ]
!205 = metadata !{i32 786453, i32 0, metadata !"", i32 0, i32 0, i64 0, i64 0, i64 0, i32 0, null, metadata !206, i32 0, i32 0} ; [ DW_TAG_subroutine_type ]
!206 = metadata !{metadata !207, metadata !213}
!207 = metadata !{i32 786454, metadata !58, metadata !"RetType", metadata !59, i32 1402, i64 0, i64 0, i64 0, i32 0, metadata !208} ; [ DW_TAG_typedef ]
!208 = metadata !{i32 786454, metadata !209, metadata !"Type", metadata !59, i32 1370, i64 0, i64 0, i64 0, i32 0, metadata !105} ; [ DW_TAG_typedef ]
!209 = metadata !{i32 786434, null, metadata !"retval<1, false>", metadata !59, i32 1369, i64 8, i64 8, i32 0, i32 0, null, metadata !210, i32 0, null, metadata !211} ; [ DW_TAG_class_type ]
!210 = metadata !{i32 0}
!211 = metadata !{metadata !212, metadata !76}
!212 = metadata !{i32 786480, null, metadata !"_AP_N", metadata !75, i64 1, null, i32 0, i32 0} ; [ DW_TAG_template_value_parameter ]
!213 = metadata !{i32 786447, i32 0, metadata !"", i32 0, i32 0, i64 32, i64 32, i64 0, i32 64, metadata !85} ; [ DW_TAG_pointer_type ]
!214 = metadata !{i32 786478, i32 0, metadata !58, metadata !"to_bool", metadata !"to_bool", metadata !"_ZNK11ap_int_baseILi4ELb0ELb1EE7to_boolEv", metadata !59, i32 1659, metadata !215, i1 false, i1 false, i32 0, i32 0, null, i32 256, i1 false, null, null, i32 0, metadata !71, i32 1659} ; [ DW_TAG_subprogram ]
!215 = metadata !{i32 786453, i32 0, metadata !"", i32 0, i32 0, i64 0, i64 0, i64 0, i32 0, null, metadata !216, i32 0, i32 0} ; [ DW_TAG_subroutine_type ]
!216 = metadata !{metadata !52, metadata !213}
!217 = metadata !{i32 786478, i32 0, metadata !58, metadata !"to_uchar", metadata !"to_uchar", metadata !"_ZNK11ap_int_baseILi4ELb0ELb1EE8to_ucharEv", metadata !59, i32 1660, metadata !218, i1 false, i1 false, i32 0, i32 0, null, i32 256, i1 false, null, null, i32 0, metadata !71, i32 1660} ; [ DW_TAG_subprogram ]
!218 = metadata !{i32 786453, i32 0, metadata !"", i32 0, i32 0, i64 0, i64 0, i64 0, i32 0, null, metadata !219, i32 0, i32 0} ; [ DW_TAG_subroutine_type ]
!219 = metadata !{metadata !105, metadata !213}
!220 = metadata !{i32 786478, i32 0, metadata !58, metadata !"to_char", metadata !"to_char", metadata !"_ZNK11ap_int_baseILi4ELb0ELb1EE7to_charEv", metadata !59, i32 1661, metadata !221, i1 false, i1 false, i32 0, i32 0, null, i32 256, i1 false, null, null, i32 0, metadata !71, i32 1661} ; [ DW_TAG_subprogram ]
!221 = metadata !{i32 786453, i32 0, metadata !"", i32 0, i32 0, i64 0, i64 0, i64 0, i32 0, null, metadata !222, i32 0, i32 0} ; [ DW_TAG_subroutine_type ]
!222 = metadata !{metadata !101, metadata !213}
!223 = metadata !{i32 786478, i32 0, metadata !58, metadata !"to_ushort", metadata !"to_ushort", metadata !"_ZNK11ap_int_baseILi4ELb0ELb1EE9to_ushortEv", metadata !59, i32 1662, metadata !224, i1 false, i1 false, i32 0, i32 0, null, i32 256, i1 false, null, null, i32 0, metadata !71, i32 1662} ; [ DW_TAG_subprogram ]
!224 = metadata !{i32 786453, i32 0, metadata !"", i32 0, i32 0, i64 0, i64 0, i64 0, i32 0, null, metadata !225, i32 0, i32 0} ; [ DW_TAG_subroutine_type ]
!225 = metadata !{metadata !113, metadata !213}
!226 = metadata !{i32 786478, i32 0, metadata !58, metadata !"to_short", metadata !"to_short", metadata !"_ZNK11ap_int_baseILi4ELb0ELb1EE8to_shortEv", metadata !59, i32 1663, metadata !227, i1 false, i1 false, i32 0, i32 0, null, i32 256, i1 false, null, null, i32 0, metadata !71, i32 1663} ; [ DW_TAG_subprogram ]
!227 = metadata !{i32 786453, i32 0, metadata !"", i32 0, i32 0, i64 0, i64 0, i64 0, i32 0, null, metadata !228, i32 0, i32 0} ; [ DW_TAG_subroutine_type ]
!228 = metadata !{metadata !109, metadata !213}
!229 = metadata !{i32 786478, i32 0, metadata !58, metadata !"to_int", metadata !"to_int", metadata !"_ZNK11ap_int_baseILi4ELb0ELb1EE6to_intEv", metadata !59, i32 1664, metadata !230, i1 false, i1 false, i32 0, i32 0, null, i32 256, i1 false, null, null, i32 0, metadata !71, i32 1664} ; [ DW_TAG_subprogram ]
!230 = metadata !{i32 786453, i32 0, metadata !"", i32 0, i32 0, i64 0, i64 0, i64 0, i32 0, null, metadata !231, i32 0, i32 0} ; [ DW_TAG_subroutine_type ]
!231 = metadata !{metadata !75, metadata !213}
!232 = metadata !{i32 786478, i32 0, metadata !58, metadata !"to_uint", metadata !"to_uint", metadata !"_ZNK11ap_int_baseILi4ELb0ELb1EE7to_uintEv", metadata !59, i32 1665, metadata !233, i1 false, i1 false, i32 0, i32 0, null, i32 256, i1 false, null, null, i32 0, metadata !71, i32 1665} ; [ DW_TAG_subprogram ]
!233 = metadata !{i32 786453, i32 0, metadata !"", i32 0, i32 0, i64 0, i64 0, i64 0, i32 0, null, metadata !234, i32 0, i32 0} ; [ DW_TAG_subroutine_type ]
!234 = metadata !{metadata !120, metadata !213}
!235 = metadata !{i32 786478, i32 0, metadata !58, metadata !"to_long", metadata !"to_long", metadata !"_ZNK11ap_int_baseILi4ELb0ELb1EE7to_longEv", metadata !59, i32 1666, metadata !236, i1 false, i1 false, i32 0, i32 0, null, i32 256, i1 false, null, null, i32 0, metadata !71, i32 1666} ; [ DW_TAG_subprogram ]
!236 = metadata !{i32 786453, i32 0, metadata !"", i32 0, i32 0, i64 0, i64 0, i64 0, i32 0, null, metadata !237, i32 0, i32 0} ; [ DW_TAG_subroutine_type ]
!237 = metadata !{metadata !124, metadata !213}
!238 = metadata !{i32 786478, i32 0, metadata !58, metadata !"to_ulong", metadata !"to_ulong", metadata !"_ZNK11ap_int_baseILi4ELb0ELb1EE8to_ulongEv", metadata !59, i32 1667, metadata !239, i1 false, i1 false, i32 0, i32 0, null, i32 256, i1 false, null, null, i32 0, metadata !71, i32 1667} ; [ DW_TAG_subprogram ]
!239 = metadata !{i32 786453, i32 0, metadata !"", i32 0, i32 0, i64 0, i64 0, i64 0, i32 0, null, metadata !240, i32 0, i32 0} ; [ DW_TAG_subroutine_type ]
!240 = metadata !{metadata !128, metadata !213}
!241 = metadata !{i32 786478, i32 0, metadata !58, metadata !"to_int64", metadata !"to_int64", metadata !"_ZNK11ap_int_baseILi4ELb0ELb1EE8to_int64Ev", metadata !59, i32 1668, metadata !242, i1 false, i1 false, i32 0, i32 0, null, i32 256, i1 false, null, null, i32 0, metadata !71, i32 1668} ; [ DW_TAG_subprogram ]
!242 = metadata !{i32 786453, i32 0, metadata !"", i32 0, i32 0, i64 0, i64 0, i64 0, i32 0, null, metadata !243, i32 0, i32 0} ; [ DW_TAG_subroutine_type ]
!243 = metadata !{metadata !132, metadata !213}
!244 = metadata !{i32 786478, i32 0, metadata !58, metadata !"to_uint64", metadata !"to_uint64", metadata !"_ZNK11ap_int_baseILi4ELb0ELb1EE9to_uint64Ev", metadata !59, i32 1669, metadata !245, i1 false, i1 false, i32 0, i32 0, null, i32 256, i1 false, null, null, i32 0, metadata !71, i32 1669} ; [ DW_TAG_subprogram ]
!245 = metadata !{i32 786453, i32 0, metadata !"", i32 0, i32 0, i64 0, i64 0, i64 0, i32 0, null, metadata !246, i32 0, i32 0} ; [ DW_TAG_subroutine_type ]
!246 = metadata !{metadata !137, metadata !213}
!247 = metadata !{i32 786478, i32 0, metadata !58, metadata !"to_double", metadata !"to_double", metadata !"_ZNK11ap_int_baseILi4ELb0ELb1EE9to_doubleEv", metadata !59, i32 1670, metadata !248, i1 false, i1 false, i32 0, i32 0, null, i32 256, i1 false, null, null, i32 0, metadata !71, i32 1670} ; [ DW_TAG_subprogram ]
!248 = metadata !{i32 786453, i32 0, metadata !"", i32 0, i32 0, i64 0, i64 0, i64 0, i32 0, null, metadata !249, i32 0, i32 0} ; [ DW_TAG_subroutine_type ]
!249 = metadata !{metadata !146, metadata !213}
!250 = metadata !{i32 786478, i32 0, metadata !58, metadata !"length", metadata !"length", metadata !"_ZNK11ap_int_baseILi4ELb0ELb1EE6lengthEv", metadata !59, i32 1684, metadata !230, i1 false, i1 false, i32 0, i32 0, null, i32 256, i1 false, null, null, i32 0, metadata !71, i32 1684} ; [ DW_TAG_subprogram ]
!251 = metadata !{i32 786478, i32 0, metadata !58, metadata !"length", metadata !"length", metadata !"_ZNVK11ap_int_baseILi4ELb0ELb1EE6lengthEv", metadata !59, i32 1685, metadata !252, i1 false, i1 false, i32 0, i32 0, null, i32 256, i1 false, null, null, i32 0, metadata !71, i32 1685} ; [ DW_TAG_subprogram ]
!252 = metadata !{i32 786453, i32 0, metadata !"", i32 0, i32 0, i64 0, i64 0, i64 0, i32 0, null, metadata !253, i32 0, i32 0} ; [ DW_TAG_subroutine_type ]
!253 = metadata !{metadata !75, metadata !254}
!254 = metadata !{i32 786447, i32 0, metadata !"", i32 0, i32 0, i64 32, i64 32, i64 0, i32 64, metadata !93} ; [ DW_TAG_pointer_type ]
!255 = metadata !{i32 786478, i32 0, metadata !58, metadata !"reverse", metadata !"reverse", metadata !"_ZN11ap_int_baseILi4ELb0ELb1EE7reverseEv", metadata !59, i32 1690, metadata !256, i1 false, i1 false, i32 0, i32 0, null, i32 256, i1 false, null, null, i32 0, metadata !71, i32 1690} ; [ DW_TAG_subprogram ]
!256 = metadata !{i32 786453, i32 0, metadata !"", i32 0, i32 0, i64 0, i64 0, i64 0, i32 0, null, metadata !257, i32 0, i32 0} ; [ DW_TAG_subroutine_type ]
!257 = metadata !{metadata !170, metadata !80}
!258 = metadata !{i32 786478, i32 0, metadata !58, metadata !"iszero", metadata !"iszero", metadata !"_ZNK11ap_int_baseILi4ELb0ELb1EE6iszeroEv", metadata !59, i32 1696, metadata !215, i1 false, i1 false, i32 0, i32 0, null, i32 256, i1 false, null, null, i32 0, metadata !71, i32 1696} ; [ DW_TAG_subprogram ]
!259 = metadata !{i32 786478, i32 0, metadata !58, metadata !"is_zero", metadata !"is_zero", metadata !"_ZNK11ap_int_baseILi4ELb0ELb1EE7is_zeroEv", metadata !59, i32 1701, metadata !215, i1 false, i1 false, i32 0, i32 0, null, i32 256, i1 false, null, null, i32 0, metadata !71, i32 1701} ; [ DW_TAG_subprogram ]
!260 = metadata !{i32 786478, i32 0, metadata !58, metadata !"sign", metadata !"sign", metadata !"_ZNK11ap_int_baseILi4ELb0ELb1EE4signEv", metadata !59, i32 1706, metadata !215, i1 false, i1 false, i32 0, i32 0, null, i32 256, i1 false, null, null, i32 0, metadata !71, i32 1706} ; [ DW_TAG_subprogram ]
!261 = metadata !{i32 786478, i32 0, metadata !58, metadata !"clear", metadata !"clear", metadata !"_ZN11ap_int_baseILi4ELb0ELb1EE5clearEi", metadata !59, i32 1714, metadata !115, i1 false, i1 false, i32 0, i32 0, null, i32 256, i1 false, null, null, i32 0, metadata !71, i32 1714} ; [ DW_TAG_subprogram ]
!262 = metadata !{i32 786478, i32 0, metadata !58, metadata !"invert", metadata !"invert", metadata !"_ZN11ap_int_baseILi4ELb0ELb1EE6invertEi", metadata !59, i32 1720, metadata !115, i1 false, i1 false, i32 0, i32 0, null, i32 256, i1 false, null, null, i32 0, metadata !71, i32 1720} ; [ DW_TAG_subprogram ]
!263 = metadata !{i32 786478, i32 0, metadata !58, metadata !"test", metadata !"test", metadata !"_ZNK11ap_int_baseILi4ELb0ELb1EE4testEi", metadata !59, i32 1728, metadata !264, i1 false, i1 false, i32 0, i32 0, null, i32 256, i1 false, null, null, i32 0, metadata !71, i32 1728} ; [ DW_TAG_subprogram ]
!264 = metadata !{i32 786453, i32 0, metadata !"", i32 0, i32 0, i64 0, i64 0, i64 0, i32 0, null, metadata !265, i32 0, i32 0} ; [ DW_TAG_subroutine_type ]
!265 = metadata !{metadata !52, metadata !213, metadata !75}
!266 = metadata !{i32 786478, i32 0, metadata !58, metadata !"set", metadata !"set", metadata !"_ZN11ap_int_baseILi4ELb0ELb1EE3setEi", metadata !59, i32 1734, metadata !115, i1 false, i1 false, i32 0, i32 0, null, i32 256, i1 false, null, null, i32 0, metadata !71, i32 1734} ; [ DW_TAG_subprogram ]
!267 = metadata !{i32 786478, i32 0, metadata !58, metadata !"set", metadata !"set", metadata !"_ZN11ap_int_baseILi4ELb0ELb1EE3setEib", metadata !59, i32 1740, metadata !268, i1 false, i1 false, i32 0, i32 0, null, i32 256, i1 false, null, null, i32 0, metadata !71, i32 1740} ; [ DW_TAG_subprogram ]
!268 = metadata !{i32 786453, i32 0, metadata !"", i32 0, i32 0, i64 0, i64 0, i64 0, i32 0, null, metadata !269, i32 0, i32 0} ; [ DW_TAG_subroutine_type ]
!269 = metadata !{null, metadata !80, metadata !75, metadata !52}
!270 = metadata !{i32 786478, i32 0, metadata !58, metadata !"lrotate", metadata !"lrotate", metadata !"_ZN11ap_int_baseILi4ELb0ELb1EE7lrotateEi", metadata !59, i32 1747, metadata !115, i1 false, i1 false, i32 0, i32 0, null, i32 256, i1 false, null, null, i32 0, metadata !71, i32 1747} ; [ DW_TAG_subprogram ]
!271 = metadata !{i32 786478, i32 0, metadata !58, metadata !"rrotate", metadata !"rrotate", metadata !"_ZN11ap_int_baseILi4ELb0ELb1EE7rrotateEi", metadata !59, i32 1756, metadata !115, i1 false, i1 false, i32 0, i32 0, null, i32 256, i1 false, null, null, i32 0, metadata !71, i32 1756} ; [ DW_TAG_subprogram ]
!272 = metadata !{i32 786478, i32 0, metadata !58, metadata !"set_bit", metadata !"set_bit", metadata !"_ZN11ap_int_baseILi4ELb0ELb1EE7set_bitEib", metadata !59, i32 1764, metadata !268, i1 false, i1 false, i32 0, i32 0, null, i32 256, i1 false, null, null, i32 0, metadata !71, i32 1764} ; [ DW_TAG_subprogram ]
!273 = metadata !{i32 786478, i32 0, metadata !58, metadata !"get_bit", metadata !"get_bit", metadata !"_ZNK11ap_int_baseILi4ELb0ELb1EE7get_bitEi", metadata !59, i32 1769, metadata !264, i1 false, i1 false, i32 0, i32 0, null, i32 256, i1 false, null, null, i32 0, metadata !71, i32 1769} ; [ DW_TAG_subprogram ]
!274 = metadata !{i32 786478, i32 0, metadata !58, metadata !"b_not", metadata !"b_not", metadata !"_ZN11ap_int_baseILi4ELb0ELb1EE5b_notEv", metadata !59, i32 1774, metadata !78, i1 false, i1 false, i32 0, i32 0, null, i32 256, i1 false, null, null, i32 0, metadata !71, i32 1774} ; [ DW_TAG_subprogram ]
!275 = metadata !{i32 786478, i32 0, metadata !58, metadata !"countLeadingZeros", metadata !"countLeadingZeros", metadata !"_ZN11ap_int_baseILi4ELb0ELb1EE17countLeadingZerosEv", metadata !59, i32 1781, metadata !276, i1 false, i1 false, i32 0, i32 0, null, i32 256, i1 false, null, null, i32 0, metadata !71, i32 1781} ; [ DW_TAG_subprogram ]
!276 = metadata !{i32 786453, i32 0, metadata !"", i32 0, i32 0, i64 0, i64 0, i64 0, i32 0, null, metadata !277, i32 0, i32 0} ; [ DW_TAG_subroutine_type ]
!277 = metadata !{metadata !75, metadata !80}
!278 = metadata !{i32 786478, i32 0, metadata !58, metadata !"operator++", metadata !"operator++", metadata !"_ZN11ap_int_baseILi4ELb0ELb1EEppEv", metadata !59, i32 1838, metadata !256, i1 false, i1 false, i32 0, i32 0, null, i32 256, i1 false, null, null, i32 0, metadata !71, i32 1838} ; [ DW_TAG_subprogram ]
!279 = metadata !{i32 786478, i32 0, metadata !58, metadata !"operator--", metadata !"operator--", metadata !"_ZN11ap_int_baseILi4ELb0ELb1EEmmEv", metadata !59, i32 1842, metadata !256, i1 false, i1 false, i32 0, i32 0, null, i32 256, i1 false, null, null, i32 0, metadata !71, i32 1842} ; [ DW_TAG_subprogram ]
!280 = metadata !{i32 786478, i32 0, metadata !58, metadata !"operator++", metadata !"operator++", metadata !"_ZN11ap_int_baseILi4ELb0ELb1EEppEi", metadata !59, i32 1850, metadata !281, i1 false, i1 false, i32 0, i32 0, null, i32 256, i1 false, null, null, i32 0, metadata !71, i32 1850} ; [ DW_TAG_subprogram ]
!281 = metadata !{i32 786453, i32 0, metadata !"", i32 0, i32 0, i64 0, i64 0, i64 0, i32 0, null, metadata !282, i32 0, i32 0} ; [ DW_TAG_subroutine_type ]
!282 = metadata !{metadata !85, metadata !80, metadata !75}
!283 = metadata !{i32 786478, i32 0, metadata !58, metadata !"operator--", metadata !"operator--", metadata !"_ZN11ap_int_baseILi4ELb0ELb1EEmmEi", metadata !59, i32 1855, metadata !281, i1 false, i1 false, i32 0, i32 0, null, i32 256, i1 false, null, null, i32 0, metadata !71, i32 1855} ; [ DW_TAG_subprogram ]
!284 = metadata !{i32 786478, i32 0, metadata !58, metadata !"operator+", metadata !"operator+", metadata !"_ZNK11ap_int_baseILi4ELb0ELb1EEpsEv", metadata !59, i32 1864, metadata !285, i1 false, i1 false, i32 0, i32 0, null, i32 256, i1 false, null, null, i32 0, metadata !71, i32 1864} ; [ DW_TAG_subprogram ]
!285 = metadata !{i32 786453, i32 0, metadata !"", i32 0, i32 0, i64 0, i64 0, i64 0, i32 0, null, metadata !286, i32 0, i32 0} ; [ DW_TAG_subroutine_type ]
!286 = metadata !{metadata !58, metadata !213}
!287 = metadata !{i32 786478, i32 0, metadata !58, metadata !"operator!", metadata !"operator!", metadata !"_ZNK11ap_int_baseILi4ELb0ELb1EEntEv", metadata !59, i32 1870, metadata !215, i1 false, i1 false, i32 0, i32 0, null, i32 256, i1 false, null, null, i32 0, metadata !71, i32 1870} ; [ DW_TAG_subprogram ]
!288 = metadata !{i32 786478, i32 0, metadata !58, metadata !"operator-", metadata !"operator-", metadata !"_ZNK11ap_int_baseILi4ELb0ELb1EEngEv", metadata !59, i32 1875, metadata !289, i1 false, i1 false, i32 0, i32 0, null, i32 256, i1 false, null, null, i32 0, metadata !71, i32 1875} ; [ DW_TAG_subprogram ]
!289 = metadata !{i32 786453, i32 0, metadata !"", i32 0, i32 0, i64 0, i64 0, i64 0, i32 0, null, metadata !290, i32 0, i32 0} ; [ DW_TAG_subroutine_type ]
!290 = metadata !{metadata !291, metadata !213}
!291 = metadata !{i32 786434, null, metadata !"ap_int_base<5, true, true>", metadata !59, i32 650, i32 0, i32 0, i32 0, i32 4, null, null, i32 0} ; [ DW_TAG_class_type ]
!292 = metadata !{i32 786478, i32 0, metadata !58, metadata !"range", metadata !"range", metadata !"_ZN11ap_int_baseILi4ELb0ELb1EE5rangeEii", metadata !59, i32 2005, metadata !293, i1 false, i1 false, i32 0, i32 0, null, i32 256, i1 false, null, null, i32 0, metadata !71, i32 2005} ; [ DW_TAG_subprogram ]
!293 = metadata !{i32 786453, i32 0, metadata !"", i32 0, i32 0, i64 0, i64 0, i64 0, i32 0, null, metadata !294, i32 0, i32 0} ; [ DW_TAG_subroutine_type ]
!294 = metadata !{metadata !295, metadata !80, metadata !75, metadata !75}
!295 = metadata !{i32 786434, null, metadata !"ap_range_ref<4, false>", metadata !59, i32 923, i32 0, i32 0, i32 0, i32 4, null, null, i32 0} ; [ DW_TAG_class_type ]
!296 = metadata !{i32 786478, i32 0, metadata !58, metadata !"operator()", metadata !"operator()", metadata !"_ZN11ap_int_baseILi4ELb0ELb1EEclEii", metadata !59, i32 2011, metadata !293, i1 false, i1 false, i32 0, i32 0, null, i32 256, i1 false, null, null, i32 0, metadata !71, i32 2011} ; [ DW_TAG_subprogram ]
!297 = metadata !{i32 786478, i32 0, metadata !58, metadata !"range", metadata !"range", metadata !"_ZNK11ap_int_baseILi4ELb0ELb1EE5rangeEii", metadata !59, i32 2017, metadata !298, i1 false, i1 false, i32 0, i32 0, null, i32 256, i1 false, null, null, i32 0, metadata !71, i32 2017} ; [ DW_TAG_subprogram ]
!298 = metadata !{i32 786453, i32 0, metadata !"", i32 0, i32 0, i64 0, i64 0, i64 0, i32 0, null, metadata !299, i32 0, i32 0} ; [ DW_TAG_subroutine_type ]
!299 = metadata !{metadata !295, metadata !213, metadata !75, metadata !75}
!300 = metadata !{i32 786478, i32 0, metadata !58, metadata !"operator()", metadata !"operator()", metadata !"_ZNK11ap_int_baseILi4ELb0ELb1EEclEii", metadata !59, i32 2023, metadata !298, i1 false, i1 false, i32 0, i32 0, null, i32 256, i1 false, null, null, i32 0, metadata !71, i32 2023} ; [ DW_TAG_subprogram ]
!301 = metadata !{i32 786478, i32 0, metadata !58, metadata !"operator[]", metadata !"operator[]", metadata !"_ZN11ap_int_baseILi4ELb0ELb1EEixEi", metadata !59, i32 2042, metadata !302, i1 false, i1 false, i32 0, i32 0, null, i32 256, i1 false, null, null, i32 0, metadata !71, i32 2042} ; [ DW_TAG_subprogram ]
!302 = metadata !{i32 786453, i32 0, metadata !"", i32 0, i32 0, i64 0, i64 0, i64 0, i32 0, null, metadata !303, i32 0, i32 0} ; [ DW_TAG_subroutine_type ]
!303 = metadata !{metadata !304, metadata !80, metadata !75}
!304 = metadata !{i32 786434, null, metadata !"ap_bit_ref<4, false>", metadata !59, i32 1193, i32 0, i32 0, i32 0, i32 4, null, null, i32 0} ; [ DW_TAG_class_type ]
!305 = metadata !{i32 786478, i32 0, metadata !58, metadata !"operator[]", metadata !"operator[]", metadata !"_ZNK11ap_int_baseILi4ELb0ELb1EEixEi", metadata !59, i32 2056, metadata !264, i1 false, i1 false, i32 0, i32 0, null, i32 256, i1 false, null, null, i32 0, metadata !71, i32 2056} ; [ DW_TAG_subprogram ]
!306 = metadata !{i32 786478, i32 0, metadata !58, metadata !"bit", metadata !"bit", metadata !"_ZN11ap_int_baseILi4ELb0ELb1EE3bitEi", metadata !59, i32 2070, metadata !302, i1 false, i1 false, i32 0, i32 0, null, i32 256, i1 false, null, null, i32 0, metadata !71, i32 2070} ; [ DW_TAG_subprogram ]
!307 = metadata !{i32 786478, i32 0, metadata !58, metadata !"bit", metadata !"bit", metadata !"_ZNK11ap_int_baseILi4ELb0ELb1EE3bitEi", metadata !59, i32 2084, metadata !264, i1 false, i1 false, i32 0, i32 0, null, i32 256, i1 false, null, null, i32 0, metadata !71, i32 2084} ; [ DW_TAG_subprogram ]
!308 = metadata !{i32 786478, i32 0, metadata !58, metadata !"and_reduce", metadata !"and_reduce", metadata !"_ZN11ap_int_baseILi4ELb0ELb1EE10and_reduceEv", metadata !59, i32 2264, metadata !309, i1 false, i1 false, i32 0, i32 0, null, i32 256, i1 false, null, null, i32 0, metadata !71, i32 2264} ; [ DW_TAG_subprogram ]
!309 = metadata !{i32 786453, i32 0, metadata !"", i32 0, i32 0, i64 0, i64 0, i64 0, i32 0, null, metadata !310, i32 0, i32 0} ; [ DW_TAG_subroutine_type ]
!310 = metadata !{metadata !52, metadata !80}
!311 = metadata !{i32 786478, i32 0, metadata !58, metadata !"nand_reduce", metadata !"nand_reduce", metadata !"_ZN11ap_int_baseILi4ELb0ELb1EE11nand_reduceEv", metadata !59, i32 2267, metadata !309, i1 false, i1 false, i32 0, i32 0, null, i32 256, i1 false, null, null, i32 0, metadata !71, i32 2267} ; [ DW_TAG_subprogram ]
!312 = metadata !{i32 786478, i32 0, metadata !58, metadata !"or_reduce", metadata !"or_reduce", metadata !"_ZN11ap_int_baseILi4ELb0ELb1EE9or_reduceEv", metadata !59, i32 2270, metadata !309, i1 false, i1 false, i32 0, i32 0, null, i32 256, i1 false, null, null, i32 0, metadata !71, i32 2270} ; [ DW_TAG_subprogram ]
!313 = metadata !{i32 786478, i32 0, metadata !58, metadata !"nor_reduce", metadata !"nor_reduce", metadata !"_ZN11ap_int_baseILi4ELb0ELb1EE10nor_reduceEv", metadata !59, i32 2273, metadata !309, i1 false, i1 false, i32 0, i32 0, null, i32 256, i1 false, null, null, i32 0, metadata !71, i32 2273} ; [ DW_TAG_subprogram ]
!314 = metadata !{i32 786478, i32 0, metadata !58, metadata !"xor_reduce", metadata !"xor_reduce", metadata !"_ZN11ap_int_baseILi4ELb0ELb1EE10xor_reduceEv", metadata !59, i32 2276, metadata !309, i1 false, i1 false, i32 0, i32 0, null, i32 256, i1 false, null, null, i32 0, metadata !71, i32 2276} ; [ DW_TAG_subprogram ]
!315 = metadata !{i32 786478, i32 0, metadata !58, metadata !"xnor_reduce", metadata !"xnor_reduce", metadata !"_ZN11ap_int_baseILi4ELb0ELb1EE11xnor_reduceEv", metadata !59, i32 2279, metadata !309, i1 false, i1 false, i32 0, i32 0, null, i32 256, i1 false, null, null, i32 0, metadata !71, i32 2279} ; [ DW_TAG_subprogram ]
!316 = metadata !{i32 786478, i32 0, metadata !58, metadata !"and_reduce", metadata !"and_reduce", metadata !"_ZNK11ap_int_baseILi4ELb0ELb1EE10and_reduceEv", metadata !59, i32 2283, metadata !215, i1 false, i1 false, i32 0, i32 0, null, i32 256, i1 false, null, null, i32 0, metadata !71, i32 2283} ; [ DW_TAG_subprogram ]
!317 = metadata !{i32 786478, i32 0, metadata !58, metadata !"nand_reduce", metadata !"nand_reduce", metadata !"_ZNK11ap_int_baseILi4ELb0ELb1EE11nand_reduceEv", metadata !59, i32 2286, metadata !215, i1 false, i1 false, i32 0, i32 0, null, i32 256, i1 false, null, null, i32 0, metadata !71, i32 2286} ; [ DW_TAG_subprogram ]
!318 = metadata !{i32 786478, i32 0, metadata !58, metadata !"or_reduce", metadata !"or_reduce", metadata !"_ZNK11ap_int_baseILi4ELb0ELb1EE9or_reduceEv", metadata !59, i32 2289, metadata !215, i1 false, i1 false, i32 0, i32 0, null, i32 256, i1 false, null, null, i32 0, metadata !71, i32 2289} ; [ DW_TAG_subprogram ]
!319 = metadata !{i32 786478, i32 0, metadata !58, metadata !"nor_reduce", metadata !"nor_reduce", metadata !"_ZNK11ap_int_baseILi4ELb0ELb1EE10nor_reduceEv", metadata !59, i32 2292, metadata !215, i1 false, i1 false, i32 0, i32 0, null, i32 256, i1 false, null, null, i32 0, metadata !71, i32 2292} ; [ DW_TAG_subprogram ]
!320 = metadata !{i32 786478, i32 0, metadata !58, metadata !"xor_reduce", metadata !"xor_reduce", metadata !"_ZNK11ap_int_baseILi4ELb0ELb1EE10xor_reduceEv", metadata !59, i32 2295, metadata !215, i1 false, i1 false, i32 0, i32 0, null, i32 256, i1 false, null, null, i32 0, metadata !71, i32 2295} ; [ DW_TAG_subprogram ]
!321 = metadata !{i32 786478, i32 0, metadata !58, metadata !"xnor_reduce", metadata !"xnor_reduce", metadata !"_ZNK11ap_int_baseILi4ELb0ELb1EE11xnor_reduceEv", metadata !59, i32 2298, metadata !215, i1 false, i1 false, i32 0, i32 0, null, i32 256, i1 false, null, null, i32 0, metadata !71, i32 2298} ; [ DW_TAG_subprogram ]
!322 = metadata !{i32 786478, i32 0, metadata !58, metadata !"to_string", metadata !"to_string", metadata !"_ZNK11ap_int_baseILi4ELb0ELb1EE9to_stringEPci8BaseModeb", metadata !59, i32 2305, metadata !323, i1 false, i1 false, i32 0, i32 0, null, i32 256, i1 false, null, null, i32 0, metadata !71, i32 2305} ; [ DW_TAG_subprogram ]
!323 = metadata !{i32 786453, i32 0, metadata !"", i32 0, i32 0, i64 0, i64 0, i64 0, i32 0, null, metadata !324, i32 0, i32 0} ; [ DW_TAG_subroutine_type ]
!324 = metadata !{null, metadata !213, metadata !325, metadata !75, metadata !326, metadata !52}
!325 = metadata !{i32 786447, null, metadata !"", null, i32 0, i64 32, i64 32, i64 0, i32 0, metadata !152} ; [ DW_TAG_pointer_type ]
!326 = metadata !{i32 786436, null, metadata !"BaseMode", metadata !59, i32 602, i64 5, i64 8, i32 0, i32 0, null, metadata !327, i32 0, i32 0} ; [ DW_TAG_enumeration_type ]
!327 = metadata !{metadata !328, metadata !329, metadata !330, metadata !331}
!328 = metadata !{i32 786472, metadata !"SC_BIN", i64 2} ; [ DW_TAG_enumerator ]
!329 = metadata !{i32 786472, metadata !"SC_OCT", i64 8} ; [ DW_TAG_enumerator ]
!330 = metadata !{i32 786472, metadata !"SC_DEC", i64 10} ; [ DW_TAG_enumerator ]
!331 = metadata !{i32 786472, metadata !"SC_HEX", i64 16} ; [ DW_TAG_enumerator ]
!332 = metadata !{i32 786478, i32 0, metadata !58, metadata !"to_string", metadata !"to_string", metadata !"_ZNK11ap_int_baseILi4ELb0ELb1EE9to_stringE8BaseModeb", metadata !59, i32 2332, metadata !333, i1 false, i1 false, i32 0, i32 0, null, i32 256, i1 false, null, null, i32 0, metadata !71, i32 2332} ; [ DW_TAG_subprogram ]
!333 = metadata !{i32 786453, i32 0, metadata !"", i32 0, i32 0, i64 0, i64 0, i64 0, i32 0, null, metadata !334, i32 0, i32 0} ; [ DW_TAG_subroutine_type ]
!334 = metadata !{metadata !325, metadata !213, metadata !326, metadata !52}
!335 = metadata !{i32 786478, i32 0, metadata !58, metadata !"to_string", metadata !"to_string", metadata !"_ZNK11ap_int_baseILi4ELb0ELb1EE9to_stringEab", metadata !59, i32 2336, metadata !336, i1 false, i1 false, i32 0, i32 0, null, i32 256, i1 false, null, null, i32 0, metadata !71, i32 2336} ; [ DW_TAG_subprogram ]
!336 = metadata !{i32 786453, i32 0, metadata !"", i32 0, i32 0, i64 0, i64 0, i64 0, i32 0, null, metadata !337, i32 0, i32 0} ; [ DW_TAG_subroutine_type ]
!337 = metadata !{metadata !325, metadata !213, metadata !101, metadata !52}
!338 = metadata !{metadata !339, metadata !76, metadata !340}
!339 = metadata !{i32 786480, null, metadata !"_AP_W", metadata !75, i64 4, null, i32 0, i32 0} ; [ DW_TAG_template_value_parameter ]
!340 = metadata !{i32 786480, null, metadata !"_AP_C", metadata !52, i64 1, null, i32 0, i32 0} ; [ DW_TAG_template_value_parameter ]
!341 = metadata !{i32 786478, i32 0, metadata !54, metadata !"ap_uint", metadata !"ap_uint", metadata !"", metadata !55, i32 183, metadata !342, i1 false, i1 false, i32 0, i32 0, null, i32 256, i1 false, null, null, i32 0, metadata !71, i32 183} ; [ DW_TAG_subprogram ]
!342 = metadata !{i32 786453, i32 0, metadata !"", i32 0, i32 0, i64 0, i64 0, i64 0, i32 0, null, metadata !343, i32 0, i32 0} ; [ DW_TAG_subroutine_type ]
!343 = metadata !{null, metadata !344}
!344 = metadata !{i32 786447, i32 0, metadata !"", i32 0, i32 0, i64 32, i64 32, i64 0, i32 64, metadata !54} ; [ DW_TAG_pointer_type ]
!345 = metadata !{i32 786478, i32 0, metadata !54, metadata !"ap_uint", metadata !"ap_uint", metadata !"", metadata !55, i32 245, metadata !346, i1 false, i1 false, i32 0, i32 0, null, i32 256, i1 false, null, null, i32 0, metadata !71, i32 245} ; [ DW_TAG_subprogram ]
!346 = metadata !{i32 786453, i32 0, metadata !"", i32 0, i32 0, i64 0, i64 0, i64 0, i32 0, null, metadata !347, i32 0, i32 0} ; [ DW_TAG_subroutine_type ]
!347 = metadata !{null, metadata !344, metadata !52}
!348 = metadata !{i32 786478, i32 0, metadata !54, metadata !"ap_uint", metadata !"ap_uint", metadata !"", metadata !55, i32 246, metadata !349, i1 false, i1 false, i32 0, i32 0, null, i32 256, i1 false, null, null, i32 0, metadata !71, i32 246} ; [ DW_TAG_subprogram ]
!349 = metadata !{i32 786453, i32 0, metadata !"", i32 0, i32 0, i64 0, i64 0, i64 0, i32 0, null, metadata !350, i32 0, i32 0} ; [ DW_TAG_subroutine_type ]
!350 = metadata !{null, metadata !344, metadata !101}
!351 = metadata !{i32 786478, i32 0, metadata !54, metadata !"ap_uint", metadata !"ap_uint", metadata !"", metadata !55, i32 247, metadata !352, i1 false, i1 false, i32 0, i32 0, null, i32 256, i1 false, null, null, i32 0, metadata !71, i32 247} ; [ DW_TAG_subprogram ]
!352 = metadata !{i32 786453, i32 0, metadata !"", i32 0, i32 0, i64 0, i64 0, i64 0, i32 0, null, metadata !353, i32 0, i32 0} ; [ DW_TAG_subroutine_type ]
!353 = metadata !{null, metadata !344, metadata !105}
!354 = metadata !{i32 786478, i32 0, metadata !54, metadata !"ap_uint", metadata !"ap_uint", metadata !"", metadata !55, i32 248, metadata !355, i1 false, i1 false, i32 0, i32 0, null, i32 256, i1 false, null, null, i32 0, metadata !71, i32 248} ; [ DW_TAG_subprogram ]
!355 = metadata !{i32 786453, i32 0, metadata !"", i32 0, i32 0, i64 0, i64 0, i64 0, i32 0, null, metadata !356, i32 0, i32 0} ; [ DW_TAG_subroutine_type ]
!356 = metadata !{null, metadata !344, metadata !109}
!357 = metadata !{i32 786478, i32 0, metadata !54, metadata !"ap_uint", metadata !"ap_uint", metadata !"", metadata !55, i32 249, metadata !358, i1 false, i1 false, i32 0, i32 0, null, i32 256, i1 false, null, null, i32 0, metadata !71, i32 249} ; [ DW_TAG_subprogram ]
!358 = metadata !{i32 786453, i32 0, metadata !"", i32 0, i32 0, i64 0, i64 0, i64 0, i32 0, null, metadata !359, i32 0, i32 0} ; [ DW_TAG_subroutine_type ]
!359 = metadata !{null, metadata !344, metadata !113}
!360 = metadata !{i32 786478, i32 0, metadata !54, metadata !"ap_uint", metadata !"ap_uint", metadata !"", metadata !55, i32 250, metadata !361, i1 false, i1 false, i32 0, i32 0, null, i32 256, i1 false, null, null, i32 0, metadata !71, i32 250} ; [ DW_TAG_subprogram ]
!361 = metadata !{i32 786453, i32 0, metadata !"", i32 0, i32 0, i64 0, i64 0, i64 0, i32 0, null, metadata !362, i32 0, i32 0} ; [ DW_TAG_subroutine_type ]
!362 = metadata !{null, metadata !344, metadata !75}
!363 = metadata !{i32 786478, i32 0, metadata !54, metadata !"ap_uint", metadata !"ap_uint", metadata !"", metadata !55, i32 251, metadata !364, i1 false, i1 false, i32 0, i32 0, null, i32 256, i1 false, null, null, i32 0, metadata !71, i32 251} ; [ DW_TAG_subprogram ]
!364 = metadata !{i32 786453, i32 0, metadata !"", i32 0, i32 0, i64 0, i64 0, i64 0, i32 0, null, metadata !365, i32 0, i32 0} ; [ DW_TAG_subroutine_type ]
!365 = metadata !{null, metadata !344, metadata !120}
!366 = metadata !{i32 786478, i32 0, metadata !54, metadata !"ap_uint", metadata !"ap_uint", metadata !"", metadata !55, i32 252, metadata !367, i1 false, i1 false, i32 0, i32 0, null, i32 256, i1 false, null, null, i32 0, metadata !71, i32 252} ; [ DW_TAG_subprogram ]
!367 = metadata !{i32 786453, i32 0, metadata !"", i32 0, i32 0, i64 0, i64 0, i64 0, i32 0, null, metadata !368, i32 0, i32 0} ; [ DW_TAG_subroutine_type ]
!368 = metadata !{null, metadata !344, metadata !124}
!369 = metadata !{i32 786478, i32 0, metadata !54, metadata !"ap_uint", metadata !"ap_uint", metadata !"", metadata !55, i32 253, metadata !370, i1 false, i1 false, i32 0, i32 0, null, i32 256, i1 false, null, null, i32 0, metadata !71, i32 253} ; [ DW_TAG_subprogram ]
!370 = metadata !{i32 786453, i32 0, metadata !"", i32 0, i32 0, i64 0, i64 0, i64 0, i32 0, null, metadata !371, i32 0, i32 0} ; [ DW_TAG_subroutine_type ]
!371 = metadata !{null, metadata !344, metadata !128}
!372 = metadata !{i32 786478, i32 0, metadata !54, metadata !"ap_uint", metadata !"ap_uint", metadata !"", metadata !55, i32 254, metadata !373, i1 false, i1 false, i32 0, i32 0, null, i32 256, i1 false, null, null, i32 0, metadata !71, i32 254} ; [ DW_TAG_subprogram ]
!373 = metadata !{i32 786453, i32 0, metadata !"", i32 0, i32 0, i64 0, i64 0, i64 0, i32 0, null, metadata !374, i32 0, i32 0} ; [ DW_TAG_subroutine_type ]
!374 = metadata !{null, metadata !344, metadata !138}
!375 = metadata !{i32 786478, i32 0, metadata !54, metadata !"ap_uint", metadata !"ap_uint", metadata !"", metadata !55, i32 255, metadata !376, i1 false, i1 false, i32 0, i32 0, null, i32 256, i1 false, null, null, i32 0, metadata !71, i32 255} ; [ DW_TAG_subprogram ]
!376 = metadata !{i32 786453, i32 0, metadata !"", i32 0, i32 0, i64 0, i64 0, i64 0, i32 0, null, metadata !377, i32 0, i32 0} ; [ DW_TAG_subroutine_type ]
!377 = metadata !{null, metadata !344, metadata !133}
!378 = metadata !{i32 786478, i32 0, metadata !54, metadata !"ap_uint", metadata !"ap_uint", metadata !"", metadata !55, i32 256, metadata !379, i1 false, i1 false, i32 0, i32 0, null, i32 256, i1 false, null, null, i32 0, metadata !71, i32 256} ; [ DW_TAG_subprogram ]
!379 = metadata !{i32 786453, i32 0, metadata !"", i32 0, i32 0, i64 0, i64 0, i64 0, i32 0, null, metadata !380, i32 0, i32 0} ; [ DW_TAG_subroutine_type ]
!380 = metadata !{null, metadata !344, metadata !142}
!381 = metadata !{i32 786478, i32 0, metadata !54, metadata !"ap_uint", metadata !"ap_uint", metadata !"", metadata !55, i32 257, metadata !382, i1 false, i1 false, i32 0, i32 0, null, i32 256, i1 false, null, null, i32 0, metadata !71, i32 257} ; [ DW_TAG_subprogram ]
!382 = metadata !{i32 786453, i32 0, metadata !"", i32 0, i32 0, i64 0, i64 0, i64 0, i32 0, null, metadata !383, i32 0, i32 0} ; [ DW_TAG_subroutine_type ]
!383 = metadata !{null, metadata !344, metadata !146}
!384 = metadata !{i32 786478, i32 0, metadata !54, metadata !"ap_uint", metadata !"ap_uint", metadata !"", metadata !55, i32 259, metadata !385, i1 false, i1 false, i32 0, i32 0, null, i32 256, i1 false, null, null, i32 0, metadata !71, i32 259} ; [ DW_TAG_subprogram ]
!385 = metadata !{i32 786453, i32 0, metadata !"", i32 0, i32 0, i64 0, i64 0, i64 0, i32 0, null, metadata !386, i32 0, i32 0} ; [ DW_TAG_subroutine_type ]
!386 = metadata !{null, metadata !344, metadata !150}
!387 = metadata !{i32 786478, i32 0, metadata !54, metadata !"ap_uint", metadata !"ap_uint", metadata !"", metadata !55, i32 260, metadata !388, i1 false, i1 false, i32 0, i32 0, null, i32 256, i1 false, null, null, i32 0, metadata !71, i32 260} ; [ DW_TAG_subprogram ]
!388 = metadata !{i32 786453, i32 0, metadata !"", i32 0, i32 0, i64 0, i64 0, i64 0, i32 0, null, metadata !389, i32 0, i32 0} ; [ DW_TAG_subroutine_type ]
!389 = metadata !{null, metadata !344, metadata !150, metadata !101}
!390 = metadata !{i32 786478, i32 0, metadata !54, metadata !"operator=", metadata !"operator=", metadata !"_ZNV7ap_uintILi4EEaSERKS0_", metadata !55, i32 263, metadata !391, i1 false, i1 false, i32 0, i32 0, null, i32 256, i1 false, null, null, i32 0, metadata !71, i32 263} ; [ DW_TAG_subprogram ]
!391 = metadata !{i32 786453, i32 0, metadata !"", i32 0, i32 0, i64 0, i64 0, i64 0, i32 0, null, metadata !392, i32 0, i32 0} ; [ DW_TAG_subroutine_type ]
!392 = metadata !{null, metadata !393, metadata !395}
!393 = metadata !{i32 786447, i32 0, metadata !"", i32 0, i32 0, i64 32, i64 32, i64 0, i32 64, metadata !394} ; [ DW_TAG_pointer_type ]
!394 = metadata !{i32 786485, null, metadata !"", null, i32 0, i64 0, i64 0, i64 0, i32 0, metadata !54} ; [ DW_TAG_volatile_type ]
!395 = metadata !{i32 786448, null, null, null, i32 0, i64 0, i64 0, i64 0, i32 0, metadata !396} ; [ DW_TAG_reference_type ]
!396 = metadata !{i32 786470, null, metadata !"", null, i32 0, i64 0, i64 0, i64 0, i32 0, metadata !54} ; [ DW_TAG_const_type ]
!397 = metadata !{i32 786478, i32 0, metadata !54, metadata !"operator=", metadata !"operator=", metadata !"_ZNV7ap_uintILi4EEaSERVKS0_", metadata !55, i32 267, metadata !398, i1 false, i1 false, i32 0, i32 0, null, i32 256, i1 false, null, null, i32 0, metadata !71, i32 267} ; [ DW_TAG_subprogram ]
!398 = metadata !{i32 786453, i32 0, metadata !"", i32 0, i32 0, i64 0, i64 0, i64 0, i32 0, null, metadata !399, i32 0, i32 0} ; [ DW_TAG_subroutine_type ]
!399 = metadata !{null, metadata !393, metadata !400}
!400 = metadata !{i32 786448, null, null, null, i32 0, i64 0, i64 0, i64 0, i32 0, metadata !401} ; [ DW_TAG_reference_type ]
!401 = metadata !{i32 786470, null, metadata !"", null, i32 0, i64 0, i64 0, i64 0, i32 0, metadata !394} ; [ DW_TAG_const_type ]
!402 = metadata !{i32 786478, i32 0, metadata !54, metadata !"operator=", metadata !"operator=", metadata !"_ZN7ap_uintILi4EEaSERVKS0_", metadata !55, i32 271, metadata !403, i1 false, i1 false, i32 0, i32 0, null, i32 256, i1 false, null, null, i32 0, metadata !71, i32 271} ; [ DW_TAG_subprogram ]
!403 = metadata !{i32 786453, i32 0, metadata !"", i32 0, i32 0, i64 0, i64 0, i64 0, i32 0, null, metadata !404, i32 0, i32 0} ; [ DW_TAG_subroutine_type ]
!404 = metadata !{metadata !405, metadata !344, metadata !400}
!405 = metadata !{i32 786448, null, null, null, i32 0, i64 0, i64 0, i64 0, i32 0, metadata !54} ; [ DW_TAG_reference_type ]
!406 = metadata !{i32 786478, i32 0, metadata !54, metadata !"operator=", metadata !"operator=", metadata !"_ZN7ap_uintILi4EEaSERKS0_", metadata !55, i32 276, metadata !407, i1 false, i1 false, i32 0, i32 0, null, i32 256, i1 false, null, null, i32 0, metadata !71, i32 276} ; [ DW_TAG_subprogram ]
!407 = metadata !{i32 786453, i32 0, metadata !"", i32 0, i32 0, i64 0, i64 0, i64 0, i32 0, null, metadata !408, i32 0, i32 0} ; [ DW_TAG_subroutine_type ]
!408 = metadata !{metadata !405, metadata !344, metadata !395}
!409 = metadata !{i32 786478, i32 0, metadata !54, metadata !"~ap_uint", metadata !"~ap_uint", metadata !"", metadata !55, i32 180, metadata !342, i1 false, i1 false, i32 0, i32 0, null, i32 320, i1 false, null, null, i32 0, metadata !71, i32 180} ; [ DW_TAG_subprogram ]
!410 = metadata !{metadata !339}
!411 = metadata !{i32 786447, null, metadata !"", null, i32 0, i64 32, i64 32, i64 0, i32 0, metadata !412} ; [ DW_TAG_pointer_type ]
!412 = metadata !{i32 786434, null, metadata !"ap_uint<7>", metadata !55, i32 180, i64 8, i64 8, i32 0, i32 0, null, metadata !413, i32 0, null, metadata !1249} ; [ DW_TAG_class_type ]
!413 = metadata !{metadata !414, metadata !1180, metadata !1184, metadata !1187, metadata !1190, metadata !1193, metadata !1196, metadata !1199, metadata !1202, metadata !1205, metadata !1208, metadata !1211, metadata !1214, metadata !1217, metadata !1220, metadata !1223, metadata !1226, metadata !1229, metadata !1236, metadata !1241, metadata !1245, metadata !1248}
!414 = metadata !{i32 786460, metadata !412, null, metadata !55, i32 0, i64 0, i64 0, i64 0, i32 0, metadata !415} ; [ DW_TAG_inheritance ]
!415 = metadata !{i32 786434, null, metadata !"ap_int_base<7, false, true>", metadata !59, i32 1397, i64 8, i64 8, i32 0, i32 0, null, metadata !416, i32 0, null, metadata !1178} ; [ DW_TAG_class_type ]
!416 = metadata !{metadata !417, metadata !428, metadata !432, metadata !439, metadata !445, metadata !448, metadata !451, metadata !454, metadata !457, metadata !460, metadata !463, metadata !466, metadata !469, metadata !472, metadata !475, metadata !478, metadata !481, metadata !484, metadata !487, metadata !490, metadata !494, metadata !497, metadata !500, metadata !501, metadata !505, metadata !508, metadata !511, metadata !514, metadata !517, metadata !520, metadata !523, metadata !526, metadata !529, metadata !532, metadata !535, metadata !538, metadata !543, metadata !546, metadata !549, metadata !552, metadata !555, metadata !558, metadata !561, metadata !564, metadata !567, metadata !570, metadata !573, metadata !576, metadata !579, metadata !580, metadata !584, metadata !587, metadata !588, metadata !589, metadata !590, metadata !591, metadata !592, metadata !595, metadata !596, metadata !599, metadata !600, metadata !601, metadata !602, metadata !603, metadata !604, metadata !607, metadata !608, metadata !609, metadata !612, metadata !613, metadata !616, metadata !617, metadata !1139, metadata !1143, metadata !1144, metadata !1147, metadata !1148, metadata !1152, metadata !1153, metadata !1154, metadata !1155, metadata !1158, metadata !1159, metadata !1160, metadata !1161, metadata !1162, metadata !1163, metadata !1164, metadata !1165, metadata !1166, metadata !1167, metadata !1168, metadata !1169, metadata !1172, metadata !1175}
!417 = metadata !{i32 786460, metadata !415, null, metadata !59, i32 0, i64 0, i64 0, i64 0, i32 0, metadata !418} ; [ DW_TAG_inheritance ]
!418 = metadata !{i32 786434, null, metadata !"ssdm_int<7 + 1024 * 0, false>", metadata !63, i32 9, i64 8, i64 8, i32 0, i32 0, null, metadata !419, i32 0, null, metadata !426} ; [ DW_TAG_class_type ]
!419 = metadata !{metadata !420, metadata !422}
!420 = metadata !{i32 786445, metadata !418, metadata !"V", metadata !63, i32 9, i64 7, i64 8, i64 0, i32 0, metadata !421} ; [ DW_TAG_member ]
!421 = metadata !{i32 786468, null, metadata !"uint7", null, i32 0, i64 7, i64 8, i64 0, i32 0, i32 7} ; [ DW_TAG_base_type ]
!422 = metadata !{i32 786478, i32 0, metadata !418, metadata !"ssdm_int", metadata !"ssdm_int", metadata !"", metadata !63, i32 9, metadata !423, i1 false, i1 false, i32 0, i32 0, null, i32 256, i1 false, null, null, i32 0, metadata !71, i32 9} ; [ DW_TAG_subprogram ]
!423 = metadata !{i32 786453, i32 0, metadata !"", i32 0, i32 0, i64 0, i64 0, i64 0, i32 0, null, metadata !424, i32 0, i32 0} ; [ DW_TAG_subroutine_type ]
!424 = metadata !{null, metadata !425}
!425 = metadata !{i32 786447, i32 0, metadata !"", i32 0, i32 0, i64 32, i64 32, i64 0, i32 64, metadata !418} ; [ DW_TAG_pointer_type ]
!426 = metadata !{metadata !427, metadata !76}
!427 = metadata !{i32 786480, null, metadata !"_AP_N", metadata !75, i64 7, null, i32 0, i32 0} ; [ DW_TAG_template_value_parameter ]
!428 = metadata !{i32 786478, i32 0, metadata !415, metadata !"ap_int_base", metadata !"ap_int_base", metadata !"", metadata !59, i32 1438, metadata !429, i1 false, i1 false, i32 0, i32 0, null, i32 256, i1 false, null, null, i32 0, metadata !71, i32 1438} ; [ DW_TAG_subprogram ]
!429 = metadata !{i32 786453, i32 0, metadata !"", i32 0, i32 0, i64 0, i64 0, i64 0, i32 0, null, metadata !430, i32 0, i32 0} ; [ DW_TAG_subroutine_type ]
!430 = metadata !{null, metadata !431}
!431 = metadata !{i32 786447, i32 0, metadata !"", i32 0, i32 0, i64 32, i64 32, i64 0, i32 64, metadata !415} ; [ DW_TAG_pointer_type ]
!432 = metadata !{i32 786478, i32 0, metadata !415, metadata !"ap_int_base<7, false>", metadata !"ap_int_base<7, false>", metadata !"", metadata !59, i32 1450, metadata !433, i1 false, i1 false, i32 0, i32 0, null, i32 256, i1 false, null, metadata !437, i32 0, metadata !71, i32 1450} ; [ DW_TAG_subprogram ]
!433 = metadata !{i32 786453, i32 0, metadata !"", i32 0, i32 0, i64 0, i64 0, i64 0, i32 0, null, metadata !434, i32 0, i32 0} ; [ DW_TAG_subroutine_type ]
!434 = metadata !{null, metadata !431, metadata !435}
!435 = metadata !{i32 786448, null, null, null, i32 0, i64 0, i64 0, i64 0, i32 0, metadata !436} ; [ DW_TAG_reference_type ]
!436 = metadata !{i32 786470, null, metadata !"", null, i32 0, i64 0, i64 0, i64 0, i32 0, metadata !415} ; [ DW_TAG_const_type ]
!437 = metadata !{metadata !438, metadata !88}
!438 = metadata !{i32 786480, null, metadata !"_AP_W2", metadata !75, i64 7, null, i32 0, i32 0} ; [ DW_TAG_template_value_parameter ]
!439 = metadata !{i32 786478, i32 0, metadata !415, metadata !"ap_int_base<7, false>", metadata !"ap_int_base<7, false>", metadata !"", metadata !59, i32 1453, metadata !440, i1 false, i1 false, i32 0, i32 0, null, i32 256, i1 false, null, metadata !437, i32 0, metadata !71, i32 1453} ; [ DW_TAG_subprogram ]
!440 = metadata !{i32 786453, i32 0, metadata !"", i32 0, i32 0, i64 0, i64 0, i64 0, i32 0, null, metadata !441, i32 0, i32 0} ; [ DW_TAG_subroutine_type ]
!441 = metadata !{null, metadata !431, metadata !442}
!442 = metadata !{i32 786448, null, null, null, i32 0, i64 0, i64 0, i64 0, i32 0, metadata !443} ; [ DW_TAG_reference_type ]
!443 = metadata !{i32 786470, null, metadata !"", null, i32 0, i64 0, i64 0, i64 0, i32 0, metadata !444} ; [ DW_TAG_const_type ]
!444 = metadata !{i32 786485, null, metadata !"", null, i32 0, i64 0, i64 0, i64 0, i32 0, metadata !415} ; [ DW_TAG_volatile_type ]
!445 = metadata !{i32 786478, i32 0, metadata !415, metadata !"ap_int_base", metadata !"ap_int_base", metadata !"", metadata !59, i32 1460, metadata !446, i1 false, i1 false, i32 0, i32 0, null, i32 384, i1 false, null, null, i32 0, metadata !71, i32 1460} ; [ DW_TAG_subprogram ]
!446 = metadata !{i32 786453, i32 0, metadata !"", i32 0, i32 0, i64 0, i64 0, i64 0, i32 0, null, metadata !447, i32 0, i32 0} ; [ DW_TAG_subroutine_type ]
!447 = metadata !{null, metadata !431, metadata !52}
!448 = metadata !{i32 786478, i32 0, metadata !415, metadata !"ap_int_base", metadata !"ap_int_base", metadata !"", metadata !59, i32 1461, metadata !449, i1 false, i1 false, i32 0, i32 0, null, i32 384, i1 false, null, null, i32 0, metadata !71, i32 1461} ; [ DW_TAG_subprogram ]
!449 = metadata !{i32 786453, i32 0, metadata !"", i32 0, i32 0, i64 0, i64 0, i64 0, i32 0, null, metadata !450, i32 0, i32 0} ; [ DW_TAG_subroutine_type ]
!450 = metadata !{null, metadata !431, metadata !101}
!451 = metadata !{i32 786478, i32 0, metadata !415, metadata !"ap_int_base", metadata !"ap_int_base", metadata !"", metadata !59, i32 1462, metadata !452, i1 false, i1 false, i32 0, i32 0, null, i32 384, i1 false, null, null, i32 0, metadata !71, i32 1462} ; [ DW_TAG_subprogram ]
!452 = metadata !{i32 786453, i32 0, metadata !"", i32 0, i32 0, i64 0, i64 0, i64 0, i32 0, null, metadata !453, i32 0, i32 0} ; [ DW_TAG_subroutine_type ]
!453 = metadata !{null, metadata !431, metadata !105}
!454 = metadata !{i32 786478, i32 0, metadata !415, metadata !"ap_int_base", metadata !"ap_int_base", metadata !"", metadata !59, i32 1463, metadata !455, i1 false, i1 false, i32 0, i32 0, null, i32 384, i1 false, null, null, i32 0, metadata !71, i32 1463} ; [ DW_TAG_subprogram ]
!455 = metadata !{i32 786453, i32 0, metadata !"", i32 0, i32 0, i64 0, i64 0, i64 0, i32 0, null, metadata !456, i32 0, i32 0} ; [ DW_TAG_subroutine_type ]
!456 = metadata !{null, metadata !431, metadata !109}
!457 = metadata !{i32 786478, i32 0, metadata !415, metadata !"ap_int_base", metadata !"ap_int_base", metadata !"", metadata !59, i32 1464, metadata !458, i1 false, i1 false, i32 0, i32 0, null, i32 384, i1 false, null, null, i32 0, metadata !71, i32 1464} ; [ DW_TAG_subprogram ]
!458 = metadata !{i32 786453, i32 0, metadata !"", i32 0, i32 0, i64 0, i64 0, i64 0, i32 0, null, metadata !459, i32 0, i32 0} ; [ DW_TAG_subroutine_type ]
!459 = metadata !{null, metadata !431, metadata !113}
!460 = metadata !{i32 786478, i32 0, metadata !415, metadata !"ap_int_base", metadata !"ap_int_base", metadata !"", metadata !59, i32 1465, metadata !461, i1 false, i1 false, i32 0, i32 0, null, i32 384, i1 false, null, null, i32 0, metadata !71, i32 1465} ; [ DW_TAG_subprogram ]
!461 = metadata !{i32 786453, i32 0, metadata !"", i32 0, i32 0, i64 0, i64 0, i64 0, i32 0, null, metadata !462, i32 0, i32 0} ; [ DW_TAG_subroutine_type ]
!462 = metadata !{null, metadata !431, metadata !75}
!463 = metadata !{i32 786478, i32 0, metadata !415, metadata !"ap_int_base", metadata !"ap_int_base", metadata !"", metadata !59, i32 1466, metadata !464, i1 false, i1 false, i32 0, i32 0, null, i32 384, i1 false, null, null, i32 0, metadata !71, i32 1466} ; [ DW_TAG_subprogram ]
!464 = metadata !{i32 786453, i32 0, metadata !"", i32 0, i32 0, i64 0, i64 0, i64 0, i32 0, null, metadata !465, i32 0, i32 0} ; [ DW_TAG_subroutine_type ]
!465 = metadata !{null, metadata !431, metadata !120}
!466 = metadata !{i32 786478, i32 0, metadata !415, metadata !"ap_int_base", metadata !"ap_int_base", metadata !"", metadata !59, i32 1467, metadata !467, i1 false, i1 false, i32 0, i32 0, null, i32 384, i1 false, null, null, i32 0, metadata !71, i32 1467} ; [ DW_TAG_subprogram ]
!467 = metadata !{i32 786453, i32 0, metadata !"", i32 0, i32 0, i64 0, i64 0, i64 0, i32 0, null, metadata !468, i32 0, i32 0} ; [ DW_TAG_subroutine_type ]
!468 = metadata !{null, metadata !431, metadata !124}
!469 = metadata !{i32 786478, i32 0, metadata !415, metadata !"ap_int_base", metadata !"ap_int_base", metadata !"", metadata !59, i32 1468, metadata !470, i1 false, i1 false, i32 0, i32 0, null, i32 384, i1 false, null, null, i32 0, metadata !71, i32 1468} ; [ DW_TAG_subprogram ]
!470 = metadata !{i32 786453, i32 0, metadata !"", i32 0, i32 0, i64 0, i64 0, i64 0, i32 0, null, metadata !471, i32 0, i32 0} ; [ DW_TAG_subroutine_type ]
!471 = metadata !{null, metadata !431, metadata !128}
!472 = metadata !{i32 786478, i32 0, metadata !415, metadata !"ap_int_base", metadata !"ap_int_base", metadata !"", metadata !59, i32 1469, metadata !473, i1 false, i1 false, i32 0, i32 0, null, i32 384, i1 false, null, null, i32 0, metadata !71, i32 1469} ; [ DW_TAG_subprogram ]
!473 = metadata !{i32 786453, i32 0, metadata !"", i32 0, i32 0, i64 0, i64 0, i64 0, i32 0, null, metadata !474, i32 0, i32 0} ; [ DW_TAG_subroutine_type ]
!474 = metadata !{null, metadata !431, metadata !132}
!475 = metadata !{i32 786478, i32 0, metadata !415, metadata !"ap_int_base", metadata !"ap_int_base", metadata !"", metadata !59, i32 1470, metadata !476, i1 false, i1 false, i32 0, i32 0, null, i32 384, i1 false, null, null, i32 0, metadata !71, i32 1470} ; [ DW_TAG_subprogram ]
!476 = metadata !{i32 786453, i32 0, metadata !"", i32 0, i32 0, i64 0, i64 0, i64 0, i32 0, null, metadata !477, i32 0, i32 0} ; [ DW_TAG_subroutine_type ]
!477 = metadata !{null, metadata !431, metadata !137}
!478 = metadata !{i32 786478, i32 0, metadata !415, metadata !"ap_int_base", metadata !"ap_int_base", metadata !"", metadata !59, i32 1471, metadata !479, i1 false, i1 false, i32 0, i32 0, null, i32 384, i1 false, null, null, i32 0, metadata !71, i32 1471} ; [ DW_TAG_subprogram ]
!479 = metadata !{i32 786453, i32 0, metadata !"", i32 0, i32 0, i64 0, i64 0, i64 0, i32 0, null, metadata !480, i32 0, i32 0} ; [ DW_TAG_subroutine_type ]
!480 = metadata !{null, metadata !431, metadata !142}
!481 = metadata !{i32 786478, i32 0, metadata !415, metadata !"ap_int_base", metadata !"ap_int_base", metadata !"", metadata !59, i32 1472, metadata !482, i1 false, i1 false, i32 0, i32 0, null, i32 384, i1 false, null, null, i32 0, metadata !71, i32 1472} ; [ DW_TAG_subprogram ]
!482 = metadata !{i32 786453, i32 0, metadata !"", i32 0, i32 0, i64 0, i64 0, i64 0, i32 0, null, metadata !483, i32 0, i32 0} ; [ DW_TAG_subroutine_type ]
!483 = metadata !{null, metadata !431, metadata !146}
!484 = metadata !{i32 786478, i32 0, metadata !415, metadata !"ap_int_base", metadata !"ap_int_base", metadata !"", metadata !59, i32 1499, metadata !485, i1 false, i1 false, i32 0, i32 0, null, i32 256, i1 false, null, null, i32 0, metadata !71, i32 1499} ; [ DW_TAG_subprogram ]
!485 = metadata !{i32 786453, i32 0, metadata !"", i32 0, i32 0, i64 0, i64 0, i64 0, i32 0, null, metadata !486, i32 0, i32 0} ; [ DW_TAG_subroutine_type ]
!486 = metadata !{null, metadata !431, metadata !150}
!487 = metadata !{i32 786478, i32 0, metadata !415, metadata !"ap_int_base", metadata !"ap_int_base", metadata !"", metadata !59, i32 1506, metadata !488, i1 false, i1 false, i32 0, i32 0, null, i32 256, i1 false, null, null, i32 0, metadata !71, i32 1506} ; [ DW_TAG_subprogram ]
!488 = metadata !{i32 786453, i32 0, metadata !"", i32 0, i32 0, i64 0, i64 0, i64 0, i32 0, null, metadata !489, i32 0, i32 0} ; [ DW_TAG_subroutine_type ]
!489 = metadata !{null, metadata !431, metadata !150, metadata !101}
!490 = metadata !{i32 786478, i32 0, metadata !415, metadata !"read", metadata !"read", metadata !"_ZNV11ap_int_baseILi7ELb0ELb1EE4readEv", metadata !59, i32 1527, metadata !491, i1 false, i1 false, i32 0, i32 0, null, i32 256, i1 false, null, null, i32 0, metadata !71, i32 1527} ; [ DW_TAG_subprogram ]
!491 = metadata !{i32 786453, i32 0, metadata !"", i32 0, i32 0, i64 0, i64 0, i64 0, i32 0, null, metadata !492, i32 0, i32 0} ; [ DW_TAG_subroutine_type ]
!492 = metadata !{metadata !415, metadata !493}
!493 = metadata !{i32 786447, i32 0, metadata !"", i32 0, i32 0, i64 32, i64 32, i64 0, i32 64, metadata !444} ; [ DW_TAG_pointer_type ]
!494 = metadata !{i32 786478, i32 0, metadata !415, metadata !"write", metadata !"write", metadata !"_ZNV11ap_int_baseILi7ELb0ELb1EE5writeERKS0_", metadata !59, i32 1533, metadata !495, i1 false, i1 false, i32 0, i32 0, null, i32 256, i1 false, null, null, i32 0, metadata !71, i32 1533} ; [ DW_TAG_subprogram ]
!495 = metadata !{i32 786453, i32 0, metadata !"", i32 0, i32 0, i64 0, i64 0, i64 0, i32 0, null, metadata !496, i32 0, i32 0} ; [ DW_TAG_subroutine_type ]
!496 = metadata !{null, metadata !493, metadata !435}
!497 = metadata !{i32 786478, i32 0, metadata !415, metadata !"operator=", metadata !"operator=", metadata !"_ZNV11ap_int_baseILi7ELb0ELb1EEaSERVKS0_", metadata !59, i32 1545, metadata !498, i1 false, i1 false, i32 0, i32 0, null, i32 256, i1 false, null, null, i32 0, metadata !71, i32 1545} ; [ DW_TAG_subprogram ]
!498 = metadata !{i32 786453, i32 0, metadata !"", i32 0, i32 0, i64 0, i64 0, i64 0, i32 0, null, metadata !499, i32 0, i32 0} ; [ DW_TAG_subroutine_type ]
!499 = metadata !{null, metadata !493, metadata !442}
!500 = metadata !{i32 786478, i32 0, metadata !415, metadata !"operator=", metadata !"operator=", metadata !"_ZNV11ap_int_baseILi7ELb0ELb1EEaSERKS0_", metadata !59, i32 1554, metadata !495, i1 false, i1 false, i32 0, i32 0, null, i32 256, i1 false, null, null, i32 0, metadata !71, i32 1554} ; [ DW_TAG_subprogram ]
!501 = metadata !{i32 786478, i32 0, metadata !415, metadata !"operator=", metadata !"operator=", metadata !"_ZN11ap_int_baseILi7ELb0ELb1EEaSERVKS0_", metadata !59, i32 1577, metadata !502, i1 false, i1 false, i32 0, i32 0, null, i32 256, i1 false, null, null, i32 0, metadata !71, i32 1577} ; [ DW_TAG_subprogram ]
!502 = metadata !{i32 786453, i32 0, metadata !"", i32 0, i32 0, i64 0, i64 0, i64 0, i32 0, null, metadata !503, i32 0, i32 0} ; [ DW_TAG_subroutine_type ]
!503 = metadata !{metadata !504, metadata !431, metadata !442}
!504 = metadata !{i32 786448, null, null, null, i32 0, i64 0, i64 0, i64 0, i32 0, metadata !415} ; [ DW_TAG_reference_type ]
!505 = metadata !{i32 786478, i32 0, metadata !415, metadata !"operator=", metadata !"operator=", metadata !"_ZN11ap_int_baseILi7ELb0ELb1EEaSERKS0_", metadata !59, i32 1582, metadata !506, i1 false, i1 false, i32 0, i32 0, null, i32 256, i1 false, null, null, i32 0, metadata !71, i32 1582} ; [ DW_TAG_subprogram ]
!506 = metadata !{i32 786453, i32 0, metadata !"", i32 0, i32 0, i64 0, i64 0, i64 0, i32 0, null, metadata !507, i32 0, i32 0} ; [ DW_TAG_subroutine_type ]
!507 = metadata !{metadata !504, metadata !431, metadata !435}
!508 = metadata !{i32 786478, i32 0, metadata !415, metadata !"operator=", metadata !"operator=", metadata !"_ZN11ap_int_baseILi7ELb0ELb1EEaSEPKc", metadata !59, i32 1586, metadata !509, i1 false, i1 false, i32 0, i32 0, null, i32 256, i1 false, null, null, i32 0, metadata !71, i32 1586} ; [ DW_TAG_subprogram ]
!509 = metadata !{i32 786453, i32 0, metadata !"", i32 0, i32 0, i64 0, i64 0, i64 0, i32 0, null, metadata !510, i32 0, i32 0} ; [ DW_TAG_subroutine_type ]
!510 = metadata !{metadata !504, metadata !431, metadata !150}
!511 = metadata !{i32 786478, i32 0, metadata !415, metadata !"set", metadata !"set", metadata !"_ZN11ap_int_baseILi7ELb0ELb1EE3setEPKca", metadata !59, i32 1594, metadata !512, i1 false, i1 false, i32 0, i32 0, null, i32 256, i1 false, null, null, i32 0, metadata !71, i32 1594} ; [ DW_TAG_subprogram ]
!512 = metadata !{i32 786453, i32 0, metadata !"", i32 0, i32 0, i64 0, i64 0, i64 0, i32 0, null, metadata !513, i32 0, i32 0} ; [ DW_TAG_subroutine_type ]
!513 = metadata !{metadata !504, metadata !431, metadata !150, metadata !101}
!514 = metadata !{i32 786478, i32 0, metadata !415, metadata !"operator=", metadata !"operator=", metadata !"_ZN11ap_int_baseILi7ELb0ELb1EEaSEa", metadata !59, i32 1608, metadata !515, i1 false, i1 false, i32 0, i32 0, null, i32 256, i1 false, null, null, i32 0, metadata !71, i32 1608} ; [ DW_TAG_subprogram ]
!515 = metadata !{i32 786453, i32 0, metadata !"", i32 0, i32 0, i64 0, i64 0, i64 0, i32 0, null, metadata !516, i32 0, i32 0} ; [ DW_TAG_subroutine_type ]
!516 = metadata !{metadata !504, metadata !431, metadata !101}
!517 = metadata !{i32 786478, i32 0, metadata !415, metadata !"operator=", metadata !"operator=", metadata !"_ZN11ap_int_baseILi7ELb0ELb1EEaSEh", metadata !59, i32 1609, metadata !518, i1 false, i1 false, i32 0, i32 0, null, i32 256, i1 false, null, null, i32 0, metadata !71, i32 1609} ; [ DW_TAG_subprogram ]
!518 = metadata !{i32 786453, i32 0, metadata !"", i32 0, i32 0, i64 0, i64 0, i64 0, i32 0, null, metadata !519, i32 0, i32 0} ; [ DW_TAG_subroutine_type ]
!519 = metadata !{metadata !504, metadata !431, metadata !105}
!520 = metadata !{i32 786478, i32 0, metadata !415, metadata !"operator=", metadata !"operator=", metadata !"_ZN11ap_int_baseILi7ELb0ELb1EEaSEs", metadata !59, i32 1610, metadata !521, i1 false, i1 false, i32 0, i32 0, null, i32 256, i1 false, null, null, i32 0, metadata !71, i32 1610} ; [ DW_TAG_subprogram ]
!521 = metadata !{i32 786453, i32 0, metadata !"", i32 0, i32 0, i64 0, i64 0, i64 0, i32 0, null, metadata !522, i32 0, i32 0} ; [ DW_TAG_subroutine_type ]
!522 = metadata !{metadata !504, metadata !431, metadata !109}
!523 = metadata !{i32 786478, i32 0, metadata !415, metadata !"operator=", metadata !"operator=", metadata !"_ZN11ap_int_baseILi7ELb0ELb1EEaSEt", metadata !59, i32 1611, metadata !524, i1 false, i1 false, i32 0, i32 0, null, i32 256, i1 false, null, null, i32 0, metadata !71, i32 1611} ; [ DW_TAG_subprogram ]
!524 = metadata !{i32 786453, i32 0, metadata !"", i32 0, i32 0, i64 0, i64 0, i64 0, i32 0, null, metadata !525, i32 0, i32 0} ; [ DW_TAG_subroutine_type ]
!525 = metadata !{metadata !504, metadata !431, metadata !113}
!526 = metadata !{i32 786478, i32 0, metadata !415, metadata !"operator=", metadata !"operator=", metadata !"_ZN11ap_int_baseILi7ELb0ELb1EEaSEi", metadata !59, i32 1612, metadata !527, i1 false, i1 false, i32 0, i32 0, null, i32 256, i1 false, null, null, i32 0, metadata !71, i32 1612} ; [ DW_TAG_subprogram ]
!527 = metadata !{i32 786453, i32 0, metadata !"", i32 0, i32 0, i64 0, i64 0, i64 0, i32 0, null, metadata !528, i32 0, i32 0} ; [ DW_TAG_subroutine_type ]
!528 = metadata !{metadata !504, metadata !431, metadata !75}
!529 = metadata !{i32 786478, i32 0, metadata !415, metadata !"operator=", metadata !"operator=", metadata !"_ZN11ap_int_baseILi7ELb0ELb1EEaSEj", metadata !59, i32 1613, metadata !530, i1 false, i1 false, i32 0, i32 0, null, i32 256, i1 false, null, null, i32 0, metadata !71, i32 1613} ; [ DW_TAG_subprogram ]
!530 = metadata !{i32 786453, i32 0, metadata !"", i32 0, i32 0, i64 0, i64 0, i64 0, i32 0, null, metadata !531, i32 0, i32 0} ; [ DW_TAG_subroutine_type ]
!531 = metadata !{metadata !504, metadata !431, metadata !120}
!532 = metadata !{i32 786478, i32 0, metadata !415, metadata !"operator=", metadata !"operator=", metadata !"_ZN11ap_int_baseILi7ELb0ELb1EEaSEx", metadata !59, i32 1614, metadata !533, i1 false, i1 false, i32 0, i32 0, null, i32 256, i1 false, null, null, i32 0, metadata !71, i32 1614} ; [ DW_TAG_subprogram ]
!533 = metadata !{i32 786453, i32 0, metadata !"", i32 0, i32 0, i64 0, i64 0, i64 0, i32 0, null, metadata !534, i32 0, i32 0} ; [ DW_TAG_subroutine_type ]
!534 = metadata !{metadata !504, metadata !431, metadata !132}
!535 = metadata !{i32 786478, i32 0, metadata !415, metadata !"operator=", metadata !"operator=", metadata !"_ZN11ap_int_baseILi7ELb0ELb1EEaSEy", metadata !59, i32 1615, metadata !536, i1 false, i1 false, i32 0, i32 0, null, i32 256, i1 false, null, null, i32 0, metadata !71, i32 1615} ; [ DW_TAG_subprogram ]
!536 = metadata !{i32 786453, i32 0, metadata !"", i32 0, i32 0, i64 0, i64 0, i64 0, i32 0, null, metadata !537, i32 0, i32 0} ; [ DW_TAG_subroutine_type ]
!537 = metadata !{metadata !504, metadata !431, metadata !137}
!538 = metadata !{i32 786478, i32 0, metadata !415, metadata !"operator unsigned char", metadata !"operator unsigned char", metadata !"_ZNK11ap_int_baseILi7ELb0ELb1EEcvhEv", metadata !59, i32 1653, metadata !539, i1 false, i1 false, i32 0, i32 0, null, i32 256, i1 false, null, null, i32 0, metadata !71, i32 1653} ; [ DW_TAG_subprogram ]
!539 = metadata !{i32 786453, i32 0, metadata !"", i32 0, i32 0, i64 0, i64 0, i64 0, i32 0, null, metadata !540, i32 0, i32 0} ; [ DW_TAG_subroutine_type ]
!540 = metadata !{metadata !541, metadata !542}
!541 = metadata !{i32 786454, metadata !415, metadata !"RetType", metadata !59, i32 1402, i64 0, i64 0, i64 0, i32 0, metadata !208} ; [ DW_TAG_typedef ]
!542 = metadata !{i32 786447, i32 0, metadata !"", i32 0, i32 0, i64 32, i64 32, i64 0, i32 64, metadata !436} ; [ DW_TAG_pointer_type ]
!543 = metadata !{i32 786478, i32 0, metadata !415, metadata !"to_bool", metadata !"to_bool", metadata !"_ZNK11ap_int_baseILi7ELb0ELb1EE7to_boolEv", metadata !59, i32 1659, metadata !544, i1 false, i1 false, i32 0, i32 0, null, i32 256, i1 false, null, null, i32 0, metadata !71, i32 1659} ; [ DW_TAG_subprogram ]
!544 = metadata !{i32 786453, i32 0, metadata !"", i32 0, i32 0, i64 0, i64 0, i64 0, i32 0, null, metadata !545, i32 0, i32 0} ; [ DW_TAG_subroutine_type ]
!545 = metadata !{metadata !52, metadata !542}
!546 = metadata !{i32 786478, i32 0, metadata !415, metadata !"to_uchar", metadata !"to_uchar", metadata !"_ZNK11ap_int_baseILi7ELb0ELb1EE8to_ucharEv", metadata !59, i32 1660, metadata !547, i1 false, i1 false, i32 0, i32 0, null, i32 256, i1 false, null, null, i32 0, metadata !71, i32 1660} ; [ DW_TAG_subprogram ]
!547 = metadata !{i32 786453, i32 0, metadata !"", i32 0, i32 0, i64 0, i64 0, i64 0, i32 0, null, metadata !548, i32 0, i32 0} ; [ DW_TAG_subroutine_type ]
!548 = metadata !{metadata !105, metadata !542}
!549 = metadata !{i32 786478, i32 0, metadata !415, metadata !"to_char", metadata !"to_char", metadata !"_ZNK11ap_int_baseILi7ELb0ELb1EE7to_charEv", metadata !59, i32 1661, metadata !550, i1 false, i1 false, i32 0, i32 0, null, i32 256, i1 false, null, null, i32 0, metadata !71, i32 1661} ; [ DW_TAG_subprogram ]
!550 = metadata !{i32 786453, i32 0, metadata !"", i32 0, i32 0, i64 0, i64 0, i64 0, i32 0, null, metadata !551, i32 0, i32 0} ; [ DW_TAG_subroutine_type ]
!551 = metadata !{metadata !101, metadata !542}
!552 = metadata !{i32 786478, i32 0, metadata !415, metadata !"to_ushort", metadata !"to_ushort", metadata !"_ZNK11ap_int_baseILi7ELb0ELb1EE9to_ushortEv", metadata !59, i32 1662, metadata !553, i1 false, i1 false, i32 0, i32 0, null, i32 256, i1 false, null, null, i32 0, metadata !71, i32 1662} ; [ DW_TAG_subprogram ]
!553 = metadata !{i32 786453, i32 0, metadata !"", i32 0, i32 0, i64 0, i64 0, i64 0, i32 0, null, metadata !554, i32 0, i32 0} ; [ DW_TAG_subroutine_type ]
!554 = metadata !{metadata !113, metadata !542}
!555 = metadata !{i32 786478, i32 0, metadata !415, metadata !"to_short", metadata !"to_short", metadata !"_ZNK11ap_int_baseILi7ELb0ELb1EE8to_shortEv", metadata !59, i32 1663, metadata !556, i1 false, i1 false, i32 0, i32 0, null, i32 256, i1 false, null, null, i32 0, metadata !71, i32 1663} ; [ DW_TAG_subprogram ]
!556 = metadata !{i32 786453, i32 0, metadata !"", i32 0, i32 0, i64 0, i64 0, i64 0, i32 0, null, metadata !557, i32 0, i32 0} ; [ DW_TAG_subroutine_type ]
!557 = metadata !{metadata !109, metadata !542}
!558 = metadata !{i32 786478, i32 0, metadata !415, metadata !"to_int", metadata !"to_int", metadata !"_ZNK11ap_int_baseILi7ELb0ELb1EE6to_intEv", metadata !59, i32 1664, metadata !559, i1 false, i1 false, i32 0, i32 0, null, i32 256, i1 false, null, null, i32 0, metadata !71, i32 1664} ; [ DW_TAG_subprogram ]
!559 = metadata !{i32 786453, i32 0, metadata !"", i32 0, i32 0, i64 0, i64 0, i64 0, i32 0, null, metadata !560, i32 0, i32 0} ; [ DW_TAG_subroutine_type ]
!560 = metadata !{metadata !75, metadata !542}
!561 = metadata !{i32 786478, i32 0, metadata !415, metadata !"to_uint", metadata !"to_uint", metadata !"_ZNK11ap_int_baseILi7ELb0ELb1EE7to_uintEv", metadata !59, i32 1665, metadata !562, i1 false, i1 false, i32 0, i32 0, null, i32 256, i1 false, null, null, i32 0, metadata !71, i32 1665} ; [ DW_TAG_subprogram ]
!562 = metadata !{i32 786453, i32 0, metadata !"", i32 0, i32 0, i64 0, i64 0, i64 0, i32 0, null, metadata !563, i32 0, i32 0} ; [ DW_TAG_subroutine_type ]
!563 = metadata !{metadata !120, metadata !542}
!564 = metadata !{i32 786478, i32 0, metadata !415, metadata !"to_long", metadata !"to_long", metadata !"_ZNK11ap_int_baseILi7ELb0ELb1EE7to_longEv", metadata !59, i32 1666, metadata !565, i1 false, i1 false, i32 0, i32 0, null, i32 256, i1 false, null, null, i32 0, metadata !71, i32 1666} ; [ DW_TAG_subprogram ]
!565 = metadata !{i32 786453, i32 0, metadata !"", i32 0, i32 0, i64 0, i64 0, i64 0, i32 0, null, metadata !566, i32 0, i32 0} ; [ DW_TAG_subroutine_type ]
!566 = metadata !{metadata !124, metadata !542}
!567 = metadata !{i32 786478, i32 0, metadata !415, metadata !"to_ulong", metadata !"to_ulong", metadata !"_ZNK11ap_int_baseILi7ELb0ELb1EE8to_ulongEv", metadata !59, i32 1667, metadata !568, i1 false, i1 false, i32 0, i32 0, null, i32 256, i1 false, null, null, i32 0, metadata !71, i32 1667} ; [ DW_TAG_subprogram ]
!568 = metadata !{i32 786453, i32 0, metadata !"", i32 0, i32 0, i64 0, i64 0, i64 0, i32 0, null, metadata !569, i32 0, i32 0} ; [ DW_TAG_subroutine_type ]
!569 = metadata !{metadata !128, metadata !542}
!570 = metadata !{i32 786478, i32 0, metadata !415, metadata !"to_int64", metadata !"to_int64", metadata !"_ZNK11ap_int_baseILi7ELb0ELb1EE8to_int64Ev", metadata !59, i32 1668, metadata !571, i1 false, i1 false, i32 0, i32 0, null, i32 256, i1 false, null, null, i32 0, metadata !71, i32 1668} ; [ DW_TAG_subprogram ]
!571 = metadata !{i32 786453, i32 0, metadata !"", i32 0, i32 0, i64 0, i64 0, i64 0, i32 0, null, metadata !572, i32 0, i32 0} ; [ DW_TAG_subroutine_type ]
!572 = metadata !{metadata !132, metadata !542}
!573 = metadata !{i32 786478, i32 0, metadata !415, metadata !"to_uint64", metadata !"to_uint64", metadata !"_ZNK11ap_int_baseILi7ELb0ELb1EE9to_uint64Ev", metadata !59, i32 1669, metadata !574, i1 false, i1 false, i32 0, i32 0, null, i32 256, i1 false, null, null, i32 0, metadata !71, i32 1669} ; [ DW_TAG_subprogram ]
!574 = metadata !{i32 786453, i32 0, metadata !"", i32 0, i32 0, i64 0, i64 0, i64 0, i32 0, null, metadata !575, i32 0, i32 0} ; [ DW_TAG_subroutine_type ]
!575 = metadata !{metadata !137, metadata !542}
!576 = metadata !{i32 786478, i32 0, metadata !415, metadata !"to_double", metadata !"to_double", metadata !"_ZNK11ap_int_baseILi7ELb0ELb1EE9to_doubleEv", metadata !59, i32 1670, metadata !577, i1 false, i1 false, i32 0, i32 0, null, i32 256, i1 false, null, null, i32 0, metadata !71, i32 1670} ; [ DW_TAG_subprogram ]
!577 = metadata !{i32 786453, i32 0, metadata !"", i32 0, i32 0, i64 0, i64 0, i64 0, i32 0, null, metadata !578, i32 0, i32 0} ; [ DW_TAG_subroutine_type ]
!578 = metadata !{metadata !146, metadata !542}
!579 = metadata !{i32 786478, i32 0, metadata !415, metadata !"length", metadata !"length", metadata !"_ZNK11ap_int_baseILi7ELb0ELb1EE6lengthEv", metadata !59, i32 1684, metadata !559, i1 false, i1 false, i32 0, i32 0, null, i32 256, i1 false, null, null, i32 0, metadata !71, i32 1684} ; [ DW_TAG_subprogram ]
!580 = metadata !{i32 786478, i32 0, metadata !415, metadata !"length", metadata !"length", metadata !"_ZNVK11ap_int_baseILi7ELb0ELb1EE6lengthEv", metadata !59, i32 1685, metadata !581, i1 false, i1 false, i32 0, i32 0, null, i32 256, i1 false, null, null, i32 0, metadata !71, i32 1685} ; [ DW_TAG_subprogram ]
!581 = metadata !{i32 786453, i32 0, metadata !"", i32 0, i32 0, i64 0, i64 0, i64 0, i32 0, null, metadata !582, i32 0, i32 0} ; [ DW_TAG_subroutine_type ]
!582 = metadata !{metadata !75, metadata !583}
!583 = metadata !{i32 786447, i32 0, metadata !"", i32 0, i32 0, i64 32, i64 32, i64 0, i32 64, metadata !443} ; [ DW_TAG_pointer_type ]
!584 = metadata !{i32 786478, i32 0, metadata !415, metadata !"reverse", metadata !"reverse", metadata !"_ZN11ap_int_baseILi7ELb0ELb1EE7reverseEv", metadata !59, i32 1690, metadata !585, i1 false, i1 false, i32 0, i32 0, null, i32 256, i1 false, null, null, i32 0, metadata !71, i32 1690} ; [ DW_TAG_subprogram ]
!585 = metadata !{i32 786453, i32 0, metadata !"", i32 0, i32 0, i64 0, i64 0, i64 0, i32 0, null, metadata !586, i32 0, i32 0} ; [ DW_TAG_subroutine_type ]
!586 = metadata !{metadata !504, metadata !431}
!587 = metadata !{i32 786478, i32 0, metadata !415, metadata !"iszero", metadata !"iszero", metadata !"_ZNK11ap_int_baseILi7ELb0ELb1EE6iszeroEv", metadata !59, i32 1696, metadata !544, i1 false, i1 false, i32 0, i32 0, null, i32 256, i1 false, null, null, i32 0, metadata !71, i32 1696} ; [ DW_TAG_subprogram ]
!588 = metadata !{i32 786478, i32 0, metadata !415, metadata !"is_zero", metadata !"is_zero", metadata !"_ZNK11ap_int_baseILi7ELb0ELb1EE7is_zeroEv", metadata !59, i32 1701, metadata !544, i1 false, i1 false, i32 0, i32 0, null, i32 256, i1 false, null, null, i32 0, metadata !71, i32 1701} ; [ DW_TAG_subprogram ]
!589 = metadata !{i32 786478, i32 0, metadata !415, metadata !"sign", metadata !"sign", metadata !"_ZNK11ap_int_baseILi7ELb0ELb1EE4signEv", metadata !59, i32 1706, metadata !544, i1 false, i1 false, i32 0, i32 0, null, i32 256, i1 false, null, null, i32 0, metadata !71, i32 1706} ; [ DW_TAG_subprogram ]
!590 = metadata !{i32 786478, i32 0, metadata !415, metadata !"clear", metadata !"clear", metadata !"_ZN11ap_int_baseILi7ELb0ELb1EE5clearEi", metadata !59, i32 1714, metadata !461, i1 false, i1 false, i32 0, i32 0, null, i32 256, i1 false, null, null, i32 0, metadata !71, i32 1714} ; [ DW_TAG_subprogram ]
!591 = metadata !{i32 786478, i32 0, metadata !415, metadata !"invert", metadata !"invert", metadata !"_ZN11ap_int_baseILi7ELb0ELb1EE6invertEi", metadata !59, i32 1720, metadata !461, i1 false, i1 false, i32 0, i32 0, null, i32 256, i1 false, null, null, i32 0, metadata !71, i32 1720} ; [ DW_TAG_subprogram ]
!592 = metadata !{i32 786478, i32 0, metadata !415, metadata !"test", metadata !"test", metadata !"_ZNK11ap_int_baseILi7ELb0ELb1EE4testEi", metadata !59, i32 1728, metadata !593, i1 false, i1 false, i32 0, i32 0, null, i32 256, i1 false, null, null, i32 0, metadata !71, i32 1728} ; [ DW_TAG_subprogram ]
!593 = metadata !{i32 786453, i32 0, metadata !"", i32 0, i32 0, i64 0, i64 0, i64 0, i32 0, null, metadata !594, i32 0, i32 0} ; [ DW_TAG_subroutine_type ]
!594 = metadata !{metadata !52, metadata !542, metadata !75}
!595 = metadata !{i32 786478, i32 0, metadata !415, metadata !"set", metadata !"set", metadata !"_ZN11ap_int_baseILi7ELb0ELb1EE3setEi", metadata !59, i32 1734, metadata !461, i1 false, i1 false, i32 0, i32 0, null, i32 256, i1 false, null, null, i32 0, metadata !71, i32 1734} ; [ DW_TAG_subprogram ]
!596 = metadata !{i32 786478, i32 0, metadata !415, metadata !"set", metadata !"set", metadata !"_ZN11ap_int_baseILi7ELb0ELb1EE3setEib", metadata !59, i32 1740, metadata !597, i1 false, i1 false, i32 0, i32 0, null, i32 256, i1 false, null, null, i32 0, metadata !71, i32 1740} ; [ DW_TAG_subprogram ]
!597 = metadata !{i32 786453, i32 0, metadata !"", i32 0, i32 0, i64 0, i64 0, i64 0, i32 0, null, metadata !598, i32 0, i32 0} ; [ DW_TAG_subroutine_type ]
!598 = metadata !{null, metadata !431, metadata !75, metadata !52}
!599 = metadata !{i32 786478, i32 0, metadata !415, metadata !"lrotate", metadata !"lrotate", metadata !"_ZN11ap_int_baseILi7ELb0ELb1EE7lrotateEi", metadata !59, i32 1747, metadata !461, i1 false, i1 false, i32 0, i32 0, null, i32 256, i1 false, null, null, i32 0, metadata !71, i32 1747} ; [ DW_TAG_subprogram ]
!600 = metadata !{i32 786478, i32 0, metadata !415, metadata !"rrotate", metadata !"rrotate", metadata !"_ZN11ap_int_baseILi7ELb0ELb1EE7rrotateEi", metadata !59, i32 1756, metadata !461, i1 false, i1 false, i32 0, i32 0, null, i32 256, i1 false, null, null, i32 0, metadata !71, i32 1756} ; [ DW_TAG_subprogram ]
!601 = metadata !{i32 786478, i32 0, metadata !415, metadata !"set_bit", metadata !"set_bit", metadata !"_ZN11ap_int_baseILi7ELb0ELb1EE7set_bitEib", metadata !59, i32 1764, metadata !597, i1 false, i1 false, i32 0, i32 0, null, i32 256, i1 false, null, null, i32 0, metadata !71, i32 1764} ; [ DW_TAG_subprogram ]
!602 = metadata !{i32 786478, i32 0, metadata !415, metadata !"get_bit", metadata !"get_bit", metadata !"_ZNK11ap_int_baseILi7ELb0ELb1EE7get_bitEi", metadata !59, i32 1769, metadata !593, i1 false, i1 false, i32 0, i32 0, null, i32 256, i1 false, null, null, i32 0, metadata !71, i32 1769} ; [ DW_TAG_subprogram ]
!603 = metadata !{i32 786478, i32 0, metadata !415, metadata !"b_not", metadata !"b_not", metadata !"_ZN11ap_int_baseILi7ELb0ELb1EE5b_notEv", metadata !59, i32 1774, metadata !429, i1 false, i1 false, i32 0, i32 0, null, i32 256, i1 false, null, null, i32 0, metadata !71, i32 1774} ; [ DW_TAG_subprogram ]
!604 = metadata !{i32 786478, i32 0, metadata !415, metadata !"countLeadingZeros", metadata !"countLeadingZeros", metadata !"_ZN11ap_int_baseILi7ELb0ELb1EE17countLeadingZerosEv", metadata !59, i32 1781, metadata !605, i1 false, i1 false, i32 0, i32 0, null, i32 256, i1 false, null, null, i32 0, metadata !71, i32 1781} ; [ DW_TAG_subprogram ]
!605 = metadata !{i32 786453, i32 0, metadata !"", i32 0, i32 0, i64 0, i64 0, i64 0, i32 0, null, metadata !606, i32 0, i32 0} ; [ DW_TAG_subroutine_type ]
!606 = metadata !{metadata !75, metadata !431}
!607 = metadata !{i32 786478, i32 0, metadata !415, metadata !"operator++", metadata !"operator++", metadata !"_ZN11ap_int_baseILi7ELb0ELb1EEppEv", metadata !59, i32 1838, metadata !585, i1 false, i1 false, i32 0, i32 0, null, i32 256, i1 false, null, null, i32 0, metadata !71, i32 1838} ; [ DW_TAG_subprogram ]
!608 = metadata !{i32 786478, i32 0, metadata !415, metadata !"operator--", metadata !"operator--", metadata !"_ZN11ap_int_baseILi7ELb0ELb1EEmmEv", metadata !59, i32 1842, metadata !585, i1 false, i1 false, i32 0, i32 0, null, i32 256, i1 false, null, null, i32 0, metadata !71, i32 1842} ; [ DW_TAG_subprogram ]
!609 = metadata !{i32 786478, i32 0, metadata !415, metadata !"operator++", metadata !"operator++", metadata !"_ZN11ap_int_baseILi7ELb0ELb1EEppEi", metadata !59, i32 1850, metadata !610, i1 false, i1 false, i32 0, i32 0, null, i32 256, i1 false, null, null, i32 0, metadata !71, i32 1850} ; [ DW_TAG_subprogram ]
!610 = metadata !{i32 786453, i32 0, metadata !"", i32 0, i32 0, i64 0, i64 0, i64 0, i32 0, null, metadata !611, i32 0, i32 0} ; [ DW_TAG_subroutine_type ]
!611 = metadata !{metadata !436, metadata !431, metadata !75}
!612 = metadata !{i32 786478, i32 0, metadata !415, metadata !"operator--", metadata !"operator--", metadata !"_ZN11ap_int_baseILi7ELb0ELb1EEmmEi", metadata !59, i32 1855, metadata !610, i1 false, i1 false, i32 0, i32 0, null, i32 256, i1 false, null, null, i32 0, metadata !71, i32 1855} ; [ DW_TAG_subprogram ]
!613 = metadata !{i32 786478, i32 0, metadata !415, metadata !"operator+", metadata !"operator+", metadata !"_ZNK11ap_int_baseILi7ELb0ELb1EEpsEv", metadata !59, i32 1864, metadata !614, i1 false, i1 false, i32 0, i32 0, null, i32 256, i1 false, null, null, i32 0, metadata !71, i32 1864} ; [ DW_TAG_subprogram ]
!614 = metadata !{i32 786453, i32 0, metadata !"", i32 0, i32 0, i64 0, i64 0, i64 0, i32 0, null, metadata !615, i32 0, i32 0} ; [ DW_TAG_subroutine_type ]
!615 = metadata !{metadata !415, metadata !542}
!616 = metadata !{i32 786478, i32 0, metadata !415, metadata !"operator!", metadata !"operator!", metadata !"_ZNK11ap_int_baseILi7ELb0ELb1EEntEv", metadata !59, i32 1870, metadata !544, i1 false, i1 false, i32 0, i32 0, null, i32 256, i1 false, null, null, i32 0, metadata !71, i32 1870} ; [ DW_TAG_subprogram ]
!617 = metadata !{i32 786478, i32 0, metadata !415, metadata !"operator-", metadata !"operator-", metadata !"_ZNK11ap_int_baseILi7ELb0ELb1EEngEv", metadata !59, i32 1875, metadata !618, i1 false, i1 false, i32 0, i32 0, null, i32 256, i1 false, null, null, i32 0, metadata !71, i32 1875} ; [ DW_TAG_subprogram ]
!618 = metadata !{i32 786453, i32 0, metadata !"", i32 0, i32 0, i64 0, i64 0, i64 0, i32 0, null, metadata !619, i32 0, i32 0} ; [ DW_TAG_subroutine_type ]
!619 = metadata !{metadata !620, metadata !542}
!620 = metadata !{i32 786434, null, metadata !"ap_int_base<8, true, true>", metadata !59, i32 1397, i64 8, i64 8, i32 0, i32 0, null, metadata !621, i32 0, null, metadata !1137} ; [ DW_TAG_class_type ]
!621 = metadata !{metadata !622, metadata !634, metadata !638, metadata !641, metadata !644, metadata !647, metadata !650, metadata !653, metadata !656, metadata !659, metadata !662, metadata !665, metadata !668, metadata !671, metadata !674, metadata !677, metadata !680, metadata !683, metadata !688, metadata !693, metadata !698, metadata !699, metadata !703, metadata !706, metadata !709, metadata !712, metadata !715, metadata !718, metadata !721, metadata !724, metadata !727, metadata !730, metadata !733, metadata !736, metadata !744, metadata !747, metadata !750, metadata !753, metadata !756, metadata !759, metadata !762, metadata !765, metadata !768, metadata !771, metadata !774, metadata !777, metadata !780, metadata !781, metadata !785, metadata !788, metadata !789, metadata !790, metadata !791, metadata !792, metadata !793, metadata !796, metadata !797, metadata !800, metadata !801, metadata !802, metadata !803, metadata !804, metadata !805, metadata !808, metadata !809, metadata !810, metadata !813, metadata !814, metadata !817, metadata !818, metadata !1098, metadata !1102, metadata !1103, metadata !1106, metadata !1107, metadata !1111, metadata !1112, metadata !1113, metadata !1114, metadata !1117, metadata !1118, metadata !1119, metadata !1120, metadata !1121, metadata !1122, metadata !1123, metadata !1124, metadata !1125, metadata !1126, metadata !1127, metadata !1128, metadata !1131, metadata !1134}
!622 = metadata !{i32 786460, metadata !620, null, metadata !59, i32 0, i64 0, i64 0, i64 0, i32 0, metadata !623} ; [ DW_TAG_inheritance ]
!623 = metadata !{i32 786434, null, metadata !"ssdm_int<8 + 1024 * 0, true>", metadata !63, i32 10, i64 8, i64 8, i32 0, i32 0, null, metadata !624, i32 0, null, metadata !631} ; [ DW_TAG_class_type ]
!624 = metadata !{metadata !625, metadata !627}
!625 = metadata !{i32 786445, metadata !623, metadata !"V", metadata !63, i32 10, i64 8, i64 8, i64 0, i32 0, metadata !626} ; [ DW_TAG_member ]
!626 = metadata !{i32 786468, null, metadata !"int8", null, i32 0, i64 8, i64 8, i64 0, i32 0, i32 5} ; [ DW_TAG_base_type ]
!627 = metadata !{i32 786478, i32 0, metadata !623, metadata !"ssdm_int", metadata !"ssdm_int", metadata !"", metadata !63, i32 10, metadata !628, i1 false, i1 false, i32 0, i32 0, null, i32 256, i1 false, null, null, i32 0, metadata !71, i32 10} ; [ DW_TAG_subprogram ]
!628 = metadata !{i32 786453, i32 0, metadata !"", i32 0, i32 0, i64 0, i64 0, i64 0, i32 0, null, metadata !629, i32 0, i32 0} ; [ DW_TAG_subroutine_type ]
!629 = metadata !{null, metadata !630}
!630 = metadata !{i32 786447, i32 0, metadata !"", i32 0, i32 0, i64 32, i64 32, i64 0, i32 64, metadata !623} ; [ DW_TAG_pointer_type ]
!631 = metadata !{metadata !632, metadata !633}
!632 = metadata !{i32 786480, null, metadata !"_AP_N", metadata !75, i64 8, null, i32 0, i32 0} ; [ DW_TAG_template_value_parameter ]
!633 = metadata !{i32 786480, null, metadata !"_AP_S", metadata !52, i64 1, null, i32 0, i32 0} ; [ DW_TAG_template_value_parameter ]
!634 = metadata !{i32 786478, i32 0, metadata !620, metadata !"ap_int_base", metadata !"ap_int_base", metadata !"", metadata !59, i32 1438, metadata !635, i1 false, i1 false, i32 0, i32 0, null, i32 256, i1 false, null, null, i32 0, metadata !71, i32 1438} ; [ DW_TAG_subprogram ]
!635 = metadata !{i32 786453, i32 0, metadata !"", i32 0, i32 0, i64 0, i64 0, i64 0, i32 0, null, metadata !636, i32 0, i32 0} ; [ DW_TAG_subroutine_type ]
!636 = metadata !{null, metadata !637}
!637 = metadata !{i32 786447, i32 0, metadata !"", i32 0, i32 0, i64 32, i64 32, i64 0, i32 64, metadata !620} ; [ DW_TAG_pointer_type ]
!638 = metadata !{i32 786478, i32 0, metadata !620, metadata !"ap_int_base", metadata !"ap_int_base", metadata !"", metadata !59, i32 1460, metadata !639, i1 false, i1 false, i32 0, i32 0, null, i32 384, i1 false, null, null, i32 0, metadata !71, i32 1460} ; [ DW_TAG_subprogram ]
!639 = metadata !{i32 786453, i32 0, metadata !"", i32 0, i32 0, i64 0, i64 0, i64 0, i32 0, null, metadata !640, i32 0, i32 0} ; [ DW_TAG_subroutine_type ]
!640 = metadata !{null, metadata !637, metadata !52}
!641 = metadata !{i32 786478, i32 0, metadata !620, metadata !"ap_int_base", metadata !"ap_int_base", metadata !"", metadata !59, i32 1461, metadata !642, i1 false, i1 false, i32 0, i32 0, null, i32 384, i1 false, null, null, i32 0, metadata !71, i32 1461} ; [ DW_TAG_subprogram ]
!642 = metadata !{i32 786453, i32 0, metadata !"", i32 0, i32 0, i64 0, i64 0, i64 0, i32 0, null, metadata !643, i32 0, i32 0} ; [ DW_TAG_subroutine_type ]
!643 = metadata !{null, metadata !637, metadata !101}
!644 = metadata !{i32 786478, i32 0, metadata !620, metadata !"ap_int_base", metadata !"ap_int_base", metadata !"", metadata !59, i32 1462, metadata !645, i1 false, i1 false, i32 0, i32 0, null, i32 384, i1 false, null, null, i32 0, metadata !71, i32 1462} ; [ DW_TAG_subprogram ]
!645 = metadata !{i32 786453, i32 0, metadata !"", i32 0, i32 0, i64 0, i64 0, i64 0, i32 0, null, metadata !646, i32 0, i32 0} ; [ DW_TAG_subroutine_type ]
!646 = metadata !{null, metadata !637, metadata !105}
!647 = metadata !{i32 786478, i32 0, metadata !620, metadata !"ap_int_base", metadata !"ap_int_base", metadata !"", metadata !59, i32 1463, metadata !648, i1 false, i1 false, i32 0, i32 0, null, i32 384, i1 false, null, null, i32 0, metadata !71, i32 1463} ; [ DW_TAG_subprogram ]
!648 = metadata !{i32 786453, i32 0, metadata !"", i32 0, i32 0, i64 0, i64 0, i64 0, i32 0, null, metadata !649, i32 0, i32 0} ; [ DW_TAG_subroutine_type ]
!649 = metadata !{null, metadata !637, metadata !109}
!650 = metadata !{i32 786478, i32 0, metadata !620, metadata !"ap_int_base", metadata !"ap_int_base", metadata !"", metadata !59, i32 1464, metadata !651, i1 false, i1 false, i32 0, i32 0, null, i32 384, i1 false, null, null, i32 0, metadata !71, i32 1464} ; [ DW_TAG_subprogram ]
!651 = metadata !{i32 786453, i32 0, metadata !"", i32 0, i32 0, i64 0, i64 0, i64 0, i32 0, null, metadata !652, i32 0, i32 0} ; [ DW_TAG_subroutine_type ]
!652 = metadata !{null, metadata !637, metadata !113}
!653 = metadata !{i32 786478, i32 0, metadata !620, metadata !"ap_int_base", metadata !"ap_int_base", metadata !"", metadata !59, i32 1465, metadata !654, i1 false, i1 false, i32 0, i32 0, null, i32 384, i1 false, null, null, i32 0, metadata !71, i32 1465} ; [ DW_TAG_subprogram ]
!654 = metadata !{i32 786453, i32 0, metadata !"", i32 0, i32 0, i64 0, i64 0, i64 0, i32 0, null, metadata !655, i32 0, i32 0} ; [ DW_TAG_subroutine_type ]
!655 = metadata !{null, metadata !637, metadata !75}
!656 = metadata !{i32 786478, i32 0, metadata !620, metadata !"ap_int_base", metadata !"ap_int_base", metadata !"", metadata !59, i32 1466, metadata !657, i1 false, i1 false, i32 0, i32 0, null, i32 384, i1 false, null, null, i32 0, metadata !71, i32 1466} ; [ DW_TAG_subprogram ]
!657 = metadata !{i32 786453, i32 0, metadata !"", i32 0, i32 0, i64 0, i64 0, i64 0, i32 0, null, metadata !658, i32 0, i32 0} ; [ DW_TAG_subroutine_type ]
!658 = metadata !{null, metadata !637, metadata !120}
!659 = metadata !{i32 786478, i32 0, metadata !620, metadata !"ap_int_base", metadata !"ap_int_base", metadata !"", metadata !59, i32 1467, metadata !660, i1 false, i1 false, i32 0, i32 0, null, i32 384, i1 false, null, null, i32 0, metadata !71, i32 1467} ; [ DW_TAG_subprogram ]
!660 = metadata !{i32 786453, i32 0, metadata !"", i32 0, i32 0, i64 0, i64 0, i64 0, i32 0, null, metadata !661, i32 0, i32 0} ; [ DW_TAG_subroutine_type ]
!661 = metadata !{null, metadata !637, metadata !124}
!662 = metadata !{i32 786478, i32 0, metadata !620, metadata !"ap_int_base", metadata !"ap_int_base", metadata !"", metadata !59, i32 1468, metadata !663, i1 false, i1 false, i32 0, i32 0, null, i32 384, i1 false, null, null, i32 0, metadata !71, i32 1468} ; [ DW_TAG_subprogram ]
!663 = metadata !{i32 786453, i32 0, metadata !"", i32 0, i32 0, i64 0, i64 0, i64 0, i32 0, null, metadata !664, i32 0, i32 0} ; [ DW_TAG_subroutine_type ]
!664 = metadata !{null, metadata !637, metadata !128}
!665 = metadata !{i32 786478, i32 0, metadata !620, metadata !"ap_int_base", metadata !"ap_int_base", metadata !"", metadata !59, i32 1469, metadata !666, i1 false, i1 false, i32 0, i32 0, null, i32 384, i1 false, null, null, i32 0, metadata !71, i32 1469} ; [ DW_TAG_subprogram ]
!666 = metadata !{i32 786453, i32 0, metadata !"", i32 0, i32 0, i64 0, i64 0, i64 0, i32 0, null, metadata !667, i32 0, i32 0} ; [ DW_TAG_subroutine_type ]
!667 = metadata !{null, metadata !637, metadata !132}
!668 = metadata !{i32 786478, i32 0, metadata !620, metadata !"ap_int_base", metadata !"ap_int_base", metadata !"", metadata !59, i32 1470, metadata !669, i1 false, i1 false, i32 0, i32 0, null, i32 384, i1 false, null, null, i32 0, metadata !71, i32 1470} ; [ DW_TAG_subprogram ]
!669 = metadata !{i32 786453, i32 0, metadata !"", i32 0, i32 0, i64 0, i64 0, i64 0, i32 0, null, metadata !670, i32 0, i32 0} ; [ DW_TAG_subroutine_type ]
!670 = metadata !{null, metadata !637, metadata !137}
!671 = metadata !{i32 786478, i32 0, metadata !620, metadata !"ap_int_base", metadata !"ap_int_base", metadata !"", metadata !59, i32 1471, metadata !672, i1 false, i1 false, i32 0, i32 0, null, i32 384, i1 false, null, null, i32 0, metadata !71, i32 1471} ; [ DW_TAG_subprogram ]
!672 = metadata !{i32 786453, i32 0, metadata !"", i32 0, i32 0, i64 0, i64 0, i64 0, i32 0, null, metadata !673, i32 0, i32 0} ; [ DW_TAG_subroutine_type ]
!673 = metadata !{null, metadata !637, metadata !142}
!674 = metadata !{i32 786478, i32 0, metadata !620, metadata !"ap_int_base", metadata !"ap_int_base", metadata !"", metadata !59, i32 1472, metadata !675, i1 false, i1 false, i32 0, i32 0, null, i32 384, i1 false, null, null, i32 0, metadata !71, i32 1472} ; [ DW_TAG_subprogram ]
!675 = metadata !{i32 786453, i32 0, metadata !"", i32 0, i32 0, i64 0, i64 0, i64 0, i32 0, null, metadata !676, i32 0, i32 0} ; [ DW_TAG_subroutine_type ]
!676 = metadata !{null, metadata !637, metadata !146}
!677 = metadata !{i32 786478, i32 0, metadata !620, metadata !"ap_int_base", metadata !"ap_int_base", metadata !"", metadata !59, i32 1499, metadata !678, i1 false, i1 false, i32 0, i32 0, null, i32 256, i1 false, null, null, i32 0, metadata !71, i32 1499} ; [ DW_TAG_subprogram ]
!678 = metadata !{i32 786453, i32 0, metadata !"", i32 0, i32 0, i64 0, i64 0, i64 0, i32 0, null, metadata !679, i32 0, i32 0} ; [ DW_TAG_subroutine_type ]
!679 = metadata !{null, metadata !637, metadata !150}
!680 = metadata !{i32 786478, i32 0, metadata !620, metadata !"ap_int_base", metadata !"ap_int_base", metadata !"", metadata !59, i32 1506, metadata !681, i1 false, i1 false, i32 0, i32 0, null, i32 256, i1 false, null, null, i32 0, metadata !71, i32 1506} ; [ DW_TAG_subprogram ]
!681 = metadata !{i32 786453, i32 0, metadata !"", i32 0, i32 0, i64 0, i64 0, i64 0, i32 0, null, metadata !682, i32 0, i32 0} ; [ DW_TAG_subroutine_type ]
!682 = metadata !{null, metadata !637, metadata !150, metadata !101}
!683 = metadata !{i32 786478, i32 0, metadata !620, metadata !"read", metadata !"read", metadata !"_ZNV11ap_int_baseILi8ELb1ELb1EE4readEv", metadata !59, i32 1527, metadata !684, i1 false, i1 false, i32 0, i32 0, null, i32 256, i1 false, null, null, i32 0, metadata !71, i32 1527} ; [ DW_TAG_subprogram ]
!684 = metadata !{i32 786453, i32 0, metadata !"", i32 0, i32 0, i64 0, i64 0, i64 0, i32 0, null, metadata !685, i32 0, i32 0} ; [ DW_TAG_subroutine_type ]
!685 = metadata !{metadata !620, metadata !686}
!686 = metadata !{i32 786447, i32 0, metadata !"", i32 0, i32 0, i64 32, i64 32, i64 0, i32 64, metadata !687} ; [ DW_TAG_pointer_type ]
!687 = metadata !{i32 786485, null, metadata !"", null, i32 0, i64 0, i64 0, i64 0, i32 0, metadata !620} ; [ DW_TAG_volatile_type ]
!688 = metadata !{i32 786478, i32 0, metadata !620, metadata !"write", metadata !"write", metadata !"_ZNV11ap_int_baseILi8ELb1ELb1EE5writeERKS0_", metadata !59, i32 1533, metadata !689, i1 false, i1 false, i32 0, i32 0, null, i32 256, i1 false, null, null, i32 0, metadata !71, i32 1533} ; [ DW_TAG_subprogram ]
!689 = metadata !{i32 786453, i32 0, metadata !"", i32 0, i32 0, i64 0, i64 0, i64 0, i32 0, null, metadata !690, i32 0, i32 0} ; [ DW_TAG_subroutine_type ]
!690 = metadata !{null, metadata !686, metadata !691}
!691 = metadata !{i32 786448, null, null, null, i32 0, i64 0, i64 0, i64 0, i32 0, metadata !692} ; [ DW_TAG_reference_type ]
!692 = metadata !{i32 786470, null, metadata !"", null, i32 0, i64 0, i64 0, i64 0, i32 0, metadata !620} ; [ DW_TAG_const_type ]
!693 = metadata !{i32 786478, i32 0, metadata !620, metadata !"operator=", metadata !"operator=", metadata !"_ZNV11ap_int_baseILi8ELb1ELb1EEaSERVKS0_", metadata !59, i32 1545, metadata !694, i1 false, i1 false, i32 0, i32 0, null, i32 256, i1 false, null, null, i32 0, metadata !71, i32 1545} ; [ DW_TAG_subprogram ]
!694 = metadata !{i32 786453, i32 0, metadata !"", i32 0, i32 0, i64 0, i64 0, i64 0, i32 0, null, metadata !695, i32 0, i32 0} ; [ DW_TAG_subroutine_type ]
!695 = metadata !{null, metadata !686, metadata !696}
!696 = metadata !{i32 786448, null, null, null, i32 0, i64 0, i64 0, i64 0, i32 0, metadata !697} ; [ DW_TAG_reference_type ]
!697 = metadata !{i32 786470, null, metadata !"", null, i32 0, i64 0, i64 0, i64 0, i32 0, metadata !687} ; [ DW_TAG_const_type ]
!698 = metadata !{i32 786478, i32 0, metadata !620, metadata !"operator=", metadata !"operator=", metadata !"_ZNV11ap_int_baseILi8ELb1ELb1EEaSERKS0_", metadata !59, i32 1554, metadata !689, i1 false, i1 false, i32 0, i32 0, null, i32 256, i1 false, null, null, i32 0, metadata !71, i32 1554} ; [ DW_TAG_subprogram ]
!699 = metadata !{i32 786478, i32 0, metadata !620, metadata !"operator=", metadata !"operator=", metadata !"_ZN11ap_int_baseILi8ELb1ELb1EEaSERVKS0_", metadata !59, i32 1577, metadata !700, i1 false, i1 false, i32 0, i32 0, null, i32 256, i1 false, null, null, i32 0, metadata !71, i32 1577} ; [ DW_TAG_subprogram ]
!700 = metadata !{i32 786453, i32 0, metadata !"", i32 0, i32 0, i64 0, i64 0, i64 0, i32 0, null, metadata !701, i32 0, i32 0} ; [ DW_TAG_subroutine_type ]
!701 = metadata !{metadata !702, metadata !637, metadata !696}
!702 = metadata !{i32 786448, null, null, null, i32 0, i64 0, i64 0, i64 0, i32 0, metadata !620} ; [ DW_TAG_reference_type ]
!703 = metadata !{i32 786478, i32 0, metadata !620, metadata !"operator=", metadata !"operator=", metadata !"_ZN11ap_int_baseILi8ELb1ELb1EEaSERKS0_", metadata !59, i32 1582, metadata !704, i1 false, i1 false, i32 0, i32 0, null, i32 256, i1 false, null, null, i32 0, metadata !71, i32 1582} ; [ DW_TAG_subprogram ]
!704 = metadata !{i32 786453, i32 0, metadata !"", i32 0, i32 0, i64 0, i64 0, i64 0, i32 0, null, metadata !705, i32 0, i32 0} ; [ DW_TAG_subroutine_type ]
!705 = metadata !{metadata !702, metadata !637, metadata !691}
!706 = metadata !{i32 786478, i32 0, metadata !620, metadata !"operator=", metadata !"operator=", metadata !"_ZN11ap_int_baseILi8ELb1ELb1EEaSEPKc", metadata !59, i32 1586, metadata !707, i1 false, i1 false, i32 0, i32 0, null, i32 256, i1 false, null, null, i32 0, metadata !71, i32 1586} ; [ DW_TAG_subprogram ]
!707 = metadata !{i32 786453, i32 0, metadata !"", i32 0, i32 0, i64 0, i64 0, i64 0, i32 0, null, metadata !708, i32 0, i32 0} ; [ DW_TAG_subroutine_type ]
!708 = metadata !{metadata !702, metadata !637, metadata !150}
!709 = metadata !{i32 786478, i32 0, metadata !620, metadata !"set", metadata !"set", metadata !"_ZN11ap_int_baseILi8ELb1ELb1EE3setEPKca", metadata !59, i32 1594, metadata !710, i1 false, i1 false, i32 0, i32 0, null, i32 256, i1 false, null, null, i32 0, metadata !71, i32 1594} ; [ DW_TAG_subprogram ]
!710 = metadata !{i32 786453, i32 0, metadata !"", i32 0, i32 0, i64 0, i64 0, i64 0, i32 0, null, metadata !711, i32 0, i32 0} ; [ DW_TAG_subroutine_type ]
!711 = metadata !{metadata !702, metadata !637, metadata !150, metadata !101}
!712 = metadata !{i32 786478, i32 0, metadata !620, metadata !"operator=", metadata !"operator=", metadata !"_ZN11ap_int_baseILi8ELb1ELb1EEaSEa", metadata !59, i32 1608, metadata !713, i1 false, i1 false, i32 0, i32 0, null, i32 256, i1 false, null, null, i32 0, metadata !71, i32 1608} ; [ DW_TAG_subprogram ]
!713 = metadata !{i32 786453, i32 0, metadata !"", i32 0, i32 0, i64 0, i64 0, i64 0, i32 0, null, metadata !714, i32 0, i32 0} ; [ DW_TAG_subroutine_type ]
!714 = metadata !{metadata !702, metadata !637, metadata !101}
!715 = metadata !{i32 786478, i32 0, metadata !620, metadata !"operator=", metadata !"operator=", metadata !"_ZN11ap_int_baseILi8ELb1ELb1EEaSEh", metadata !59, i32 1609, metadata !716, i1 false, i1 false, i32 0, i32 0, null, i32 256, i1 false, null, null, i32 0, metadata !71, i32 1609} ; [ DW_TAG_subprogram ]
!716 = metadata !{i32 786453, i32 0, metadata !"", i32 0, i32 0, i64 0, i64 0, i64 0, i32 0, null, metadata !717, i32 0, i32 0} ; [ DW_TAG_subroutine_type ]
!717 = metadata !{metadata !702, metadata !637, metadata !105}
!718 = metadata !{i32 786478, i32 0, metadata !620, metadata !"operator=", metadata !"operator=", metadata !"_ZN11ap_int_baseILi8ELb1ELb1EEaSEs", metadata !59, i32 1610, metadata !719, i1 false, i1 false, i32 0, i32 0, null, i32 256, i1 false, null, null, i32 0, metadata !71, i32 1610} ; [ DW_TAG_subprogram ]
!719 = metadata !{i32 786453, i32 0, metadata !"", i32 0, i32 0, i64 0, i64 0, i64 0, i32 0, null, metadata !720, i32 0, i32 0} ; [ DW_TAG_subroutine_type ]
!720 = metadata !{metadata !702, metadata !637, metadata !109}
!721 = metadata !{i32 786478, i32 0, metadata !620, metadata !"operator=", metadata !"operator=", metadata !"_ZN11ap_int_baseILi8ELb1ELb1EEaSEt", metadata !59, i32 1611, metadata !722, i1 false, i1 false, i32 0, i32 0, null, i32 256, i1 false, null, null, i32 0, metadata !71, i32 1611} ; [ DW_TAG_subprogram ]
!722 = metadata !{i32 786453, i32 0, metadata !"", i32 0, i32 0, i64 0, i64 0, i64 0, i32 0, null, metadata !723, i32 0, i32 0} ; [ DW_TAG_subroutine_type ]
!723 = metadata !{metadata !702, metadata !637, metadata !113}
!724 = metadata !{i32 786478, i32 0, metadata !620, metadata !"operator=", metadata !"operator=", metadata !"_ZN11ap_int_baseILi8ELb1ELb1EEaSEi", metadata !59, i32 1612, metadata !725, i1 false, i1 false, i32 0, i32 0, null, i32 256, i1 false, null, null, i32 0, metadata !71, i32 1612} ; [ DW_TAG_subprogram ]
!725 = metadata !{i32 786453, i32 0, metadata !"", i32 0, i32 0, i64 0, i64 0, i64 0, i32 0, null, metadata !726, i32 0, i32 0} ; [ DW_TAG_subroutine_type ]
!726 = metadata !{metadata !702, metadata !637, metadata !75}
!727 = metadata !{i32 786478, i32 0, metadata !620, metadata !"operator=", metadata !"operator=", metadata !"_ZN11ap_int_baseILi8ELb1ELb1EEaSEj", metadata !59, i32 1613, metadata !728, i1 false, i1 false, i32 0, i32 0, null, i32 256, i1 false, null, null, i32 0, metadata !71, i32 1613} ; [ DW_TAG_subprogram ]
!728 = metadata !{i32 786453, i32 0, metadata !"", i32 0, i32 0, i64 0, i64 0, i64 0, i32 0, null, metadata !729, i32 0, i32 0} ; [ DW_TAG_subroutine_type ]
!729 = metadata !{metadata !702, metadata !637, metadata !120}
!730 = metadata !{i32 786478, i32 0, metadata !620, metadata !"operator=", metadata !"operator=", metadata !"_ZN11ap_int_baseILi8ELb1ELb1EEaSEx", metadata !59, i32 1614, metadata !731, i1 false, i1 false, i32 0, i32 0, null, i32 256, i1 false, null, null, i32 0, metadata !71, i32 1614} ; [ DW_TAG_subprogram ]
!731 = metadata !{i32 786453, i32 0, metadata !"", i32 0, i32 0, i64 0, i64 0, i64 0, i32 0, null, metadata !732, i32 0, i32 0} ; [ DW_TAG_subroutine_type ]
!732 = metadata !{metadata !702, metadata !637, metadata !132}
!733 = metadata !{i32 786478, i32 0, metadata !620, metadata !"operator=", metadata !"operator=", metadata !"_ZN11ap_int_baseILi8ELb1ELb1EEaSEy", metadata !59, i32 1615, metadata !734, i1 false, i1 false, i32 0, i32 0, null, i32 256, i1 false, null, null, i32 0, metadata !71, i32 1615} ; [ DW_TAG_subprogram ]
!734 = metadata !{i32 786453, i32 0, metadata !"", i32 0, i32 0, i64 0, i64 0, i64 0, i32 0, null, metadata !735, i32 0, i32 0} ; [ DW_TAG_subroutine_type ]
!735 = metadata !{metadata !702, metadata !637, metadata !137}
!736 = metadata !{i32 786478, i32 0, metadata !620, metadata !"operator signed char", metadata !"operator signed char", metadata !"_ZNK11ap_int_baseILi8ELb1ELb1EEcvaEv", metadata !59, i32 1653, metadata !737, i1 false, i1 false, i32 0, i32 0, null, i32 256, i1 false, null, null, i32 0, metadata !71, i32 1653} ; [ DW_TAG_subprogram ]
!737 = metadata !{i32 786453, i32 0, metadata !"", i32 0, i32 0, i64 0, i64 0, i64 0, i32 0, null, metadata !738, i32 0, i32 0} ; [ DW_TAG_subroutine_type ]
!738 = metadata !{metadata !739, metadata !743}
!739 = metadata !{i32 786454, metadata !620, metadata !"RetType", metadata !59, i32 1402, i64 0, i64 0, i64 0, i32 0, metadata !740} ; [ DW_TAG_typedef ]
!740 = metadata !{i32 786454, metadata !741, metadata !"Type", metadata !59, i32 1367, i64 0, i64 0, i64 0, i32 0, metadata !101} ; [ DW_TAG_typedef ]
!741 = metadata !{i32 786434, null, metadata !"retval<1, true>", metadata !59, i32 1366, i64 8, i64 8, i32 0, i32 0, null, metadata !210, i32 0, null, metadata !742} ; [ DW_TAG_class_type ]
!742 = metadata !{metadata !212, metadata !633}
!743 = metadata !{i32 786447, i32 0, metadata !"", i32 0, i32 0, i64 32, i64 32, i64 0, i32 64, metadata !692} ; [ DW_TAG_pointer_type ]
!744 = metadata !{i32 786478, i32 0, metadata !620, metadata !"to_bool", metadata !"to_bool", metadata !"_ZNK11ap_int_baseILi8ELb1ELb1EE7to_boolEv", metadata !59, i32 1659, metadata !745, i1 false, i1 false, i32 0, i32 0, null, i32 256, i1 false, null, null, i32 0, metadata !71, i32 1659} ; [ DW_TAG_subprogram ]
!745 = metadata !{i32 786453, i32 0, metadata !"", i32 0, i32 0, i64 0, i64 0, i64 0, i32 0, null, metadata !746, i32 0, i32 0} ; [ DW_TAG_subroutine_type ]
!746 = metadata !{metadata !52, metadata !743}
!747 = metadata !{i32 786478, i32 0, metadata !620, metadata !"to_uchar", metadata !"to_uchar", metadata !"_ZNK11ap_int_baseILi8ELb1ELb1EE8to_ucharEv", metadata !59, i32 1660, metadata !748, i1 false, i1 false, i32 0, i32 0, null, i32 256, i1 false, null, null, i32 0, metadata !71, i32 1660} ; [ DW_TAG_subprogram ]
!748 = metadata !{i32 786453, i32 0, metadata !"", i32 0, i32 0, i64 0, i64 0, i64 0, i32 0, null, metadata !749, i32 0, i32 0} ; [ DW_TAG_subroutine_type ]
!749 = metadata !{metadata !105, metadata !743}
!750 = metadata !{i32 786478, i32 0, metadata !620, metadata !"to_char", metadata !"to_char", metadata !"_ZNK11ap_int_baseILi8ELb1ELb1EE7to_charEv", metadata !59, i32 1661, metadata !751, i1 false, i1 false, i32 0, i32 0, null, i32 256, i1 false, null, null, i32 0, metadata !71, i32 1661} ; [ DW_TAG_subprogram ]
!751 = metadata !{i32 786453, i32 0, metadata !"", i32 0, i32 0, i64 0, i64 0, i64 0, i32 0, null, metadata !752, i32 0, i32 0} ; [ DW_TAG_subroutine_type ]
!752 = metadata !{metadata !101, metadata !743}
!753 = metadata !{i32 786478, i32 0, metadata !620, metadata !"to_ushort", metadata !"to_ushort", metadata !"_ZNK11ap_int_baseILi8ELb1ELb1EE9to_ushortEv", metadata !59, i32 1662, metadata !754, i1 false, i1 false, i32 0, i32 0, null, i32 256, i1 false, null, null, i32 0, metadata !71, i32 1662} ; [ DW_TAG_subprogram ]
!754 = metadata !{i32 786453, i32 0, metadata !"", i32 0, i32 0, i64 0, i64 0, i64 0, i32 0, null, metadata !755, i32 0, i32 0} ; [ DW_TAG_subroutine_type ]
!755 = metadata !{metadata !113, metadata !743}
!756 = metadata !{i32 786478, i32 0, metadata !620, metadata !"to_short", metadata !"to_short", metadata !"_ZNK11ap_int_baseILi8ELb1ELb1EE8to_shortEv", metadata !59, i32 1663, metadata !757, i1 false, i1 false, i32 0, i32 0, null, i32 256, i1 false, null, null, i32 0, metadata !71, i32 1663} ; [ DW_TAG_subprogram ]
!757 = metadata !{i32 786453, i32 0, metadata !"", i32 0, i32 0, i64 0, i64 0, i64 0, i32 0, null, metadata !758, i32 0, i32 0} ; [ DW_TAG_subroutine_type ]
!758 = metadata !{metadata !109, metadata !743}
!759 = metadata !{i32 786478, i32 0, metadata !620, metadata !"to_int", metadata !"to_int", metadata !"_ZNK11ap_int_baseILi8ELb1ELb1EE6to_intEv", metadata !59, i32 1664, metadata !760, i1 false, i1 false, i32 0, i32 0, null, i32 256, i1 false, null, null, i32 0, metadata !71, i32 1664} ; [ DW_TAG_subprogram ]
!760 = metadata !{i32 786453, i32 0, metadata !"", i32 0, i32 0, i64 0, i64 0, i64 0, i32 0, null, metadata !761, i32 0, i32 0} ; [ DW_TAG_subroutine_type ]
!761 = metadata !{metadata !75, metadata !743}
!762 = metadata !{i32 786478, i32 0, metadata !620, metadata !"to_uint", metadata !"to_uint", metadata !"_ZNK11ap_int_baseILi8ELb1ELb1EE7to_uintEv", metadata !59, i32 1665, metadata !763, i1 false, i1 false, i32 0, i32 0, null, i32 256, i1 false, null, null, i32 0, metadata !71, i32 1665} ; [ DW_TAG_subprogram ]
!763 = metadata !{i32 786453, i32 0, metadata !"", i32 0, i32 0, i64 0, i64 0, i64 0, i32 0, null, metadata !764, i32 0, i32 0} ; [ DW_TAG_subroutine_type ]
!764 = metadata !{metadata !120, metadata !743}
!765 = metadata !{i32 786478, i32 0, metadata !620, metadata !"to_long", metadata !"to_long", metadata !"_ZNK11ap_int_baseILi8ELb1ELb1EE7to_longEv", metadata !59, i32 1666, metadata !766, i1 false, i1 false, i32 0, i32 0, null, i32 256, i1 false, null, null, i32 0, metadata !71, i32 1666} ; [ DW_TAG_subprogram ]
!766 = metadata !{i32 786453, i32 0, metadata !"", i32 0, i32 0, i64 0, i64 0, i64 0, i32 0, null, metadata !767, i32 0, i32 0} ; [ DW_TAG_subroutine_type ]
!767 = metadata !{metadata !124, metadata !743}
!768 = metadata !{i32 786478, i32 0, metadata !620, metadata !"to_ulong", metadata !"to_ulong", metadata !"_ZNK11ap_int_baseILi8ELb1ELb1EE8to_ulongEv", metadata !59, i32 1667, metadata !769, i1 false, i1 false, i32 0, i32 0, null, i32 256, i1 false, null, null, i32 0, metadata !71, i32 1667} ; [ DW_TAG_subprogram ]
!769 = metadata !{i32 786453, i32 0, metadata !"", i32 0, i32 0, i64 0, i64 0, i64 0, i32 0, null, metadata !770, i32 0, i32 0} ; [ DW_TAG_subroutine_type ]
!770 = metadata !{metadata !128, metadata !743}
!771 = metadata !{i32 786478, i32 0, metadata !620, metadata !"to_int64", metadata !"to_int64", metadata !"_ZNK11ap_int_baseILi8ELb1ELb1EE8to_int64Ev", metadata !59, i32 1668, metadata !772, i1 false, i1 false, i32 0, i32 0, null, i32 256, i1 false, null, null, i32 0, metadata !71, i32 1668} ; [ DW_TAG_subprogram ]
!772 = metadata !{i32 786453, i32 0, metadata !"", i32 0, i32 0, i64 0, i64 0, i64 0, i32 0, null, metadata !773, i32 0, i32 0} ; [ DW_TAG_subroutine_type ]
!773 = metadata !{metadata !132, metadata !743}
!774 = metadata !{i32 786478, i32 0, metadata !620, metadata !"to_uint64", metadata !"to_uint64", metadata !"_ZNK11ap_int_baseILi8ELb1ELb1EE9to_uint64Ev", metadata !59, i32 1669, metadata !775, i1 false, i1 false, i32 0, i32 0, null, i32 256, i1 false, null, null, i32 0, metadata !71, i32 1669} ; [ DW_TAG_subprogram ]
!775 = metadata !{i32 786453, i32 0, metadata !"", i32 0, i32 0, i64 0, i64 0, i64 0, i32 0, null, metadata !776, i32 0, i32 0} ; [ DW_TAG_subroutine_type ]
!776 = metadata !{metadata !137, metadata !743}
!777 = metadata !{i32 786478, i32 0, metadata !620, metadata !"to_double", metadata !"to_double", metadata !"_ZNK11ap_int_baseILi8ELb1ELb1EE9to_doubleEv", metadata !59, i32 1670, metadata !778, i1 false, i1 false, i32 0, i32 0, null, i32 256, i1 false, null, null, i32 0, metadata !71, i32 1670} ; [ DW_TAG_subprogram ]
!778 = metadata !{i32 786453, i32 0, metadata !"", i32 0, i32 0, i64 0, i64 0, i64 0, i32 0, null, metadata !779, i32 0, i32 0} ; [ DW_TAG_subroutine_type ]
!779 = metadata !{metadata !146, metadata !743}
!780 = metadata !{i32 786478, i32 0, metadata !620, metadata !"length", metadata !"length", metadata !"_ZNK11ap_int_baseILi8ELb1ELb1EE6lengthEv", metadata !59, i32 1684, metadata !760, i1 false, i1 false, i32 0, i32 0, null, i32 256, i1 false, null, null, i32 0, metadata !71, i32 1684} ; [ DW_TAG_subprogram ]
!781 = metadata !{i32 786478, i32 0, metadata !620, metadata !"length", metadata !"length", metadata !"_ZNVK11ap_int_baseILi8ELb1ELb1EE6lengthEv", metadata !59, i32 1685, metadata !782, i1 false, i1 false, i32 0, i32 0, null, i32 256, i1 false, null, null, i32 0, metadata !71, i32 1685} ; [ DW_TAG_subprogram ]
!782 = metadata !{i32 786453, i32 0, metadata !"", i32 0, i32 0, i64 0, i64 0, i64 0, i32 0, null, metadata !783, i32 0, i32 0} ; [ DW_TAG_subroutine_type ]
!783 = metadata !{metadata !75, metadata !784}
!784 = metadata !{i32 786447, i32 0, metadata !"", i32 0, i32 0, i64 32, i64 32, i64 0, i32 64, metadata !697} ; [ DW_TAG_pointer_type ]
!785 = metadata !{i32 786478, i32 0, metadata !620, metadata !"reverse", metadata !"reverse", metadata !"_ZN11ap_int_baseILi8ELb1ELb1EE7reverseEv", metadata !59, i32 1690, metadata !786, i1 false, i1 false, i32 0, i32 0, null, i32 256, i1 false, null, null, i32 0, metadata !71, i32 1690} ; [ DW_TAG_subprogram ]
!786 = metadata !{i32 786453, i32 0, metadata !"", i32 0, i32 0, i64 0, i64 0, i64 0, i32 0, null, metadata !787, i32 0, i32 0} ; [ DW_TAG_subroutine_type ]
!787 = metadata !{metadata !702, metadata !637}
!788 = metadata !{i32 786478, i32 0, metadata !620, metadata !"iszero", metadata !"iszero", metadata !"_ZNK11ap_int_baseILi8ELb1ELb1EE6iszeroEv", metadata !59, i32 1696, metadata !745, i1 false, i1 false, i32 0, i32 0, null, i32 256, i1 false, null, null, i32 0, metadata !71, i32 1696} ; [ DW_TAG_subprogram ]
!789 = metadata !{i32 786478, i32 0, metadata !620, metadata !"is_zero", metadata !"is_zero", metadata !"_ZNK11ap_int_baseILi8ELb1ELb1EE7is_zeroEv", metadata !59, i32 1701, metadata !745, i1 false, i1 false, i32 0, i32 0, null, i32 256, i1 false, null, null, i32 0, metadata !71, i32 1701} ; [ DW_TAG_subprogram ]
!790 = metadata !{i32 786478, i32 0, metadata !620, metadata !"sign", metadata !"sign", metadata !"_ZNK11ap_int_baseILi8ELb1ELb1EE4signEv", metadata !59, i32 1706, metadata !745, i1 false, i1 false, i32 0, i32 0, null, i32 256, i1 false, null, null, i32 0, metadata !71, i32 1706} ; [ DW_TAG_subprogram ]
!791 = metadata !{i32 786478, i32 0, metadata !620, metadata !"clear", metadata !"clear", metadata !"_ZN11ap_int_baseILi8ELb1ELb1EE5clearEi", metadata !59, i32 1714, metadata !654, i1 false, i1 false, i32 0, i32 0, null, i32 256, i1 false, null, null, i32 0, metadata !71, i32 1714} ; [ DW_TAG_subprogram ]
!792 = metadata !{i32 786478, i32 0, metadata !620, metadata !"invert", metadata !"invert", metadata !"_ZN11ap_int_baseILi8ELb1ELb1EE6invertEi", metadata !59, i32 1720, metadata !654, i1 false, i1 false, i32 0, i32 0, null, i32 256, i1 false, null, null, i32 0, metadata !71, i32 1720} ; [ DW_TAG_subprogram ]
!793 = metadata !{i32 786478, i32 0, metadata !620, metadata !"test", metadata !"test", metadata !"_ZNK11ap_int_baseILi8ELb1ELb1EE4testEi", metadata !59, i32 1728, metadata !794, i1 false, i1 false, i32 0, i32 0, null, i32 256, i1 false, null, null, i32 0, metadata !71, i32 1728} ; [ DW_TAG_subprogram ]
!794 = metadata !{i32 786453, i32 0, metadata !"", i32 0, i32 0, i64 0, i64 0, i64 0, i32 0, null, metadata !795, i32 0, i32 0} ; [ DW_TAG_subroutine_type ]
!795 = metadata !{metadata !52, metadata !743, metadata !75}
!796 = metadata !{i32 786478, i32 0, metadata !620, metadata !"set", metadata !"set", metadata !"_ZN11ap_int_baseILi8ELb1ELb1EE3setEi", metadata !59, i32 1734, metadata !654, i1 false, i1 false, i32 0, i32 0, null, i32 256, i1 false, null, null, i32 0, metadata !71, i32 1734} ; [ DW_TAG_subprogram ]
!797 = metadata !{i32 786478, i32 0, metadata !620, metadata !"set", metadata !"set", metadata !"_ZN11ap_int_baseILi8ELb1ELb1EE3setEib", metadata !59, i32 1740, metadata !798, i1 false, i1 false, i32 0, i32 0, null, i32 256, i1 false, null, null, i32 0, metadata !71, i32 1740} ; [ DW_TAG_subprogram ]
!798 = metadata !{i32 786453, i32 0, metadata !"", i32 0, i32 0, i64 0, i64 0, i64 0, i32 0, null, metadata !799, i32 0, i32 0} ; [ DW_TAG_subroutine_type ]
!799 = metadata !{null, metadata !637, metadata !75, metadata !52}
!800 = metadata !{i32 786478, i32 0, metadata !620, metadata !"lrotate", metadata !"lrotate", metadata !"_ZN11ap_int_baseILi8ELb1ELb1EE7lrotateEi", metadata !59, i32 1747, metadata !654, i1 false, i1 false, i32 0, i32 0, null, i32 256, i1 false, null, null, i32 0, metadata !71, i32 1747} ; [ DW_TAG_subprogram ]
!801 = metadata !{i32 786478, i32 0, metadata !620, metadata !"rrotate", metadata !"rrotate", metadata !"_ZN11ap_int_baseILi8ELb1ELb1EE7rrotateEi", metadata !59, i32 1756, metadata !654, i1 false, i1 false, i32 0, i32 0, null, i32 256, i1 false, null, null, i32 0, metadata !71, i32 1756} ; [ DW_TAG_subprogram ]
!802 = metadata !{i32 786478, i32 0, metadata !620, metadata !"set_bit", metadata !"set_bit", metadata !"_ZN11ap_int_baseILi8ELb1ELb1EE7set_bitEib", metadata !59, i32 1764, metadata !798, i1 false, i1 false, i32 0, i32 0, null, i32 256, i1 false, null, null, i32 0, metadata !71, i32 1764} ; [ DW_TAG_subprogram ]
!803 = metadata !{i32 786478, i32 0, metadata !620, metadata !"get_bit", metadata !"get_bit", metadata !"_ZNK11ap_int_baseILi8ELb1ELb1EE7get_bitEi", metadata !59, i32 1769, metadata !794, i1 false, i1 false, i32 0, i32 0, null, i32 256, i1 false, null, null, i32 0, metadata !71, i32 1769} ; [ DW_TAG_subprogram ]
!804 = metadata !{i32 786478, i32 0, metadata !620, metadata !"b_not", metadata !"b_not", metadata !"_ZN11ap_int_baseILi8ELb1ELb1EE5b_notEv", metadata !59, i32 1774, metadata !635, i1 false, i1 false, i32 0, i32 0, null, i32 256, i1 false, null, null, i32 0, metadata !71, i32 1774} ; [ DW_TAG_subprogram ]
!805 = metadata !{i32 786478, i32 0, metadata !620, metadata !"countLeadingZeros", metadata !"countLeadingZeros", metadata !"_ZN11ap_int_baseILi8ELb1ELb1EE17countLeadingZerosEv", metadata !59, i32 1781, metadata !806, i1 false, i1 false, i32 0, i32 0, null, i32 256, i1 false, null, null, i32 0, metadata !71, i32 1781} ; [ DW_TAG_subprogram ]
!806 = metadata !{i32 786453, i32 0, metadata !"", i32 0, i32 0, i64 0, i64 0, i64 0, i32 0, null, metadata !807, i32 0, i32 0} ; [ DW_TAG_subroutine_type ]
!807 = metadata !{metadata !75, metadata !637}
!808 = metadata !{i32 786478, i32 0, metadata !620, metadata !"operator++", metadata !"operator++", metadata !"_ZN11ap_int_baseILi8ELb1ELb1EEppEv", metadata !59, i32 1838, metadata !786, i1 false, i1 false, i32 0, i32 0, null, i32 256, i1 false, null, null, i32 0, metadata !71, i32 1838} ; [ DW_TAG_subprogram ]
!809 = metadata !{i32 786478, i32 0, metadata !620, metadata !"operator--", metadata !"operator--", metadata !"_ZN11ap_int_baseILi8ELb1ELb1EEmmEv", metadata !59, i32 1842, metadata !786, i1 false, i1 false, i32 0, i32 0, null, i32 256, i1 false, null, null, i32 0, metadata !71, i32 1842} ; [ DW_TAG_subprogram ]
!810 = metadata !{i32 786478, i32 0, metadata !620, metadata !"operator++", metadata !"operator++", metadata !"_ZN11ap_int_baseILi8ELb1ELb1EEppEi", metadata !59, i32 1850, metadata !811, i1 false, i1 false, i32 0, i32 0, null, i32 256, i1 false, null, null, i32 0, metadata !71, i32 1850} ; [ DW_TAG_subprogram ]
!811 = metadata !{i32 786453, i32 0, metadata !"", i32 0, i32 0, i64 0, i64 0, i64 0, i32 0, null, metadata !812, i32 0, i32 0} ; [ DW_TAG_subroutine_type ]
!812 = metadata !{metadata !692, metadata !637, metadata !75}
!813 = metadata !{i32 786478, i32 0, metadata !620, metadata !"operator--", metadata !"operator--", metadata !"_ZN11ap_int_baseILi8ELb1ELb1EEmmEi", metadata !59, i32 1855, metadata !811, i1 false, i1 false, i32 0, i32 0, null, i32 256, i1 false, null, null, i32 0, metadata !71, i32 1855} ; [ DW_TAG_subprogram ]
!814 = metadata !{i32 786478, i32 0, metadata !620, metadata !"operator+", metadata !"operator+", metadata !"_ZNK11ap_int_baseILi8ELb1ELb1EEpsEv", metadata !59, i32 1864, metadata !815, i1 false, i1 false, i32 0, i32 0, null, i32 256, i1 false, null, null, i32 0, metadata !71, i32 1864} ; [ DW_TAG_subprogram ]
!815 = metadata !{i32 786453, i32 0, metadata !"", i32 0, i32 0, i64 0, i64 0, i64 0, i32 0, null, metadata !816, i32 0, i32 0} ; [ DW_TAG_subroutine_type ]
!816 = metadata !{metadata !620, metadata !743}
!817 = metadata !{i32 786478, i32 0, metadata !620, metadata !"operator!", metadata !"operator!", metadata !"_ZNK11ap_int_baseILi8ELb1ELb1EEntEv", metadata !59, i32 1870, metadata !745, i1 false, i1 false, i32 0, i32 0, null, i32 256, i1 false, null, null, i32 0, metadata !71, i32 1870} ; [ DW_TAG_subprogram ]
!818 = metadata !{i32 786478, i32 0, metadata !620, metadata !"operator-", metadata !"operator-", metadata !"_ZNK11ap_int_baseILi8ELb1ELb1EEngEv", metadata !59, i32 1875, metadata !819, i1 false, i1 false, i32 0, i32 0, null, i32 256, i1 false, null, null, i32 0, metadata !71, i32 1875} ; [ DW_TAG_subprogram ]
!819 = metadata !{i32 786453, i32 0, metadata !"", i32 0, i32 0, i64 0, i64 0, i64 0, i32 0, null, metadata !820, i32 0, i32 0} ; [ DW_TAG_subroutine_type ]
!820 = metadata !{metadata !821, metadata !743}
!821 = metadata !{i32 786434, null, metadata !"ap_int_base<9, true, true>", metadata !59, i32 1397, i64 16, i64 16, i32 0, i32 0, null, metadata !822, i32 0, null, metadata !1097} ; [ DW_TAG_class_type ]
!822 = metadata !{metadata !823, metadata !834, metadata !838, metadata !841, metadata !844, metadata !847, metadata !850, metadata !853, metadata !856, metadata !859, metadata !862, metadata !865, metadata !868, metadata !871, metadata !874, metadata !877, metadata !880, metadata !883, metadata !888, metadata !893, metadata !898, metadata !899, metadata !903, metadata !906, metadata !909, metadata !912, metadata !915, metadata !918, metadata !921, metadata !924, metadata !927, metadata !930, metadata !933, metadata !936, metadata !945, metadata !948, metadata !951, metadata !954, metadata !957, metadata !960, metadata !963, metadata !966, metadata !969, metadata !972, metadata !975, metadata !978, metadata !981, metadata !982, metadata !986, metadata !989, metadata !990, metadata !991, metadata !992, metadata !993, metadata !994, metadata !997, metadata !998, metadata !1001, metadata !1002, metadata !1003, metadata !1004, metadata !1005, metadata !1006, metadata !1009, metadata !1010, metadata !1011, metadata !1014, metadata !1015, metadata !1018, metadata !1019, metadata !1023, metadata !1027, metadata !1028, metadata !1031, metadata !1032, metadata !1071, metadata !1072, metadata !1073, metadata !1074, metadata !1077, metadata !1078, metadata !1079, metadata !1080, metadata !1081, metadata !1082, metadata !1083, metadata !1084, metadata !1085, metadata !1086, metadata !1087, metadata !1088, metadata !1091, metadata !1094}
!823 = metadata !{i32 786460, metadata !821, null, metadata !59, i32 0, i64 0, i64 0, i64 0, i32 0, metadata !824} ; [ DW_TAG_inheritance ]
!824 = metadata !{i32 786434, null, metadata !"ssdm_int<9 + 1024 * 0, true>", metadata !63, i32 11, i64 16, i64 16, i32 0, i32 0, null, metadata !825, i32 0, null, metadata !832} ; [ DW_TAG_class_type ]
!825 = metadata !{metadata !826, metadata !828}
!826 = metadata !{i32 786445, metadata !824, metadata !"V", metadata !63, i32 11, i64 9, i64 16, i64 0, i32 0, metadata !827} ; [ DW_TAG_member ]
!827 = metadata !{i32 786468, null, metadata !"int9", null, i32 0, i64 9, i64 16, i64 0, i32 0, i32 5} ; [ DW_TAG_base_type ]
!828 = metadata !{i32 786478, i32 0, metadata !824, metadata !"ssdm_int", metadata !"ssdm_int", metadata !"", metadata !63, i32 11, metadata !829, i1 false, i1 false, i32 0, i32 0, null, i32 256, i1 false, null, null, i32 0, metadata !71, i32 11} ; [ DW_TAG_subprogram ]
!829 = metadata !{i32 786453, i32 0, metadata !"", i32 0, i32 0, i64 0, i64 0, i64 0, i32 0, null, metadata !830, i32 0, i32 0} ; [ DW_TAG_subroutine_type ]
!830 = metadata !{null, metadata !831}
!831 = metadata !{i32 786447, i32 0, metadata !"", i32 0, i32 0, i64 32, i64 32, i64 0, i32 64, metadata !824} ; [ DW_TAG_pointer_type ]
!832 = metadata !{metadata !833, metadata !633}
!833 = metadata !{i32 786480, null, metadata !"_AP_N", metadata !75, i64 9, null, i32 0, i32 0} ; [ DW_TAG_template_value_parameter ]
!834 = metadata !{i32 786478, i32 0, metadata !821, metadata !"ap_int_base", metadata !"ap_int_base", metadata !"", metadata !59, i32 1438, metadata !835, i1 false, i1 false, i32 0, i32 0, null, i32 256, i1 false, null, null, i32 0, metadata !71, i32 1438} ; [ DW_TAG_subprogram ]
!835 = metadata !{i32 786453, i32 0, metadata !"", i32 0, i32 0, i64 0, i64 0, i64 0, i32 0, null, metadata !836, i32 0, i32 0} ; [ DW_TAG_subroutine_type ]
!836 = metadata !{null, metadata !837}
!837 = metadata !{i32 786447, i32 0, metadata !"", i32 0, i32 0, i64 32, i64 32, i64 0, i32 64, metadata !821} ; [ DW_TAG_pointer_type ]
!838 = metadata !{i32 786478, i32 0, metadata !821, metadata !"ap_int_base", metadata !"ap_int_base", metadata !"", metadata !59, i32 1460, metadata !839, i1 false, i1 false, i32 0, i32 0, null, i32 384, i1 false, null, null, i32 0, metadata !71, i32 1460} ; [ DW_TAG_subprogram ]
!839 = metadata !{i32 786453, i32 0, metadata !"", i32 0, i32 0, i64 0, i64 0, i64 0, i32 0, null, metadata !840, i32 0, i32 0} ; [ DW_TAG_subroutine_type ]
!840 = metadata !{null, metadata !837, metadata !52}
!841 = metadata !{i32 786478, i32 0, metadata !821, metadata !"ap_int_base", metadata !"ap_int_base", metadata !"", metadata !59, i32 1461, metadata !842, i1 false, i1 false, i32 0, i32 0, null, i32 384, i1 false, null, null, i32 0, metadata !71, i32 1461} ; [ DW_TAG_subprogram ]
!842 = metadata !{i32 786453, i32 0, metadata !"", i32 0, i32 0, i64 0, i64 0, i64 0, i32 0, null, metadata !843, i32 0, i32 0} ; [ DW_TAG_subroutine_type ]
!843 = metadata !{null, metadata !837, metadata !101}
!844 = metadata !{i32 786478, i32 0, metadata !821, metadata !"ap_int_base", metadata !"ap_int_base", metadata !"", metadata !59, i32 1462, metadata !845, i1 false, i1 false, i32 0, i32 0, null, i32 384, i1 false, null, null, i32 0, metadata !71, i32 1462} ; [ DW_TAG_subprogram ]
!845 = metadata !{i32 786453, i32 0, metadata !"", i32 0, i32 0, i64 0, i64 0, i64 0, i32 0, null, metadata !846, i32 0, i32 0} ; [ DW_TAG_subroutine_type ]
!846 = metadata !{null, metadata !837, metadata !105}
!847 = metadata !{i32 786478, i32 0, metadata !821, metadata !"ap_int_base", metadata !"ap_int_base", metadata !"", metadata !59, i32 1463, metadata !848, i1 false, i1 false, i32 0, i32 0, null, i32 384, i1 false, null, null, i32 0, metadata !71, i32 1463} ; [ DW_TAG_subprogram ]
!848 = metadata !{i32 786453, i32 0, metadata !"", i32 0, i32 0, i64 0, i64 0, i64 0, i32 0, null, metadata !849, i32 0, i32 0} ; [ DW_TAG_subroutine_type ]
!849 = metadata !{null, metadata !837, metadata !109}
!850 = metadata !{i32 786478, i32 0, metadata !821, metadata !"ap_int_base", metadata !"ap_int_base", metadata !"", metadata !59, i32 1464, metadata !851, i1 false, i1 false, i32 0, i32 0, null, i32 384, i1 false, null, null, i32 0, metadata !71, i32 1464} ; [ DW_TAG_subprogram ]
!851 = metadata !{i32 786453, i32 0, metadata !"", i32 0, i32 0, i64 0, i64 0, i64 0, i32 0, null, metadata !852, i32 0, i32 0} ; [ DW_TAG_subroutine_type ]
!852 = metadata !{null, metadata !837, metadata !113}
!853 = metadata !{i32 786478, i32 0, metadata !821, metadata !"ap_int_base", metadata !"ap_int_base", metadata !"", metadata !59, i32 1465, metadata !854, i1 false, i1 false, i32 0, i32 0, null, i32 384, i1 false, null, null, i32 0, metadata !71, i32 1465} ; [ DW_TAG_subprogram ]
!854 = metadata !{i32 786453, i32 0, metadata !"", i32 0, i32 0, i64 0, i64 0, i64 0, i32 0, null, metadata !855, i32 0, i32 0} ; [ DW_TAG_subroutine_type ]
!855 = metadata !{null, metadata !837, metadata !75}
!856 = metadata !{i32 786478, i32 0, metadata !821, metadata !"ap_int_base", metadata !"ap_int_base", metadata !"", metadata !59, i32 1466, metadata !857, i1 false, i1 false, i32 0, i32 0, null, i32 384, i1 false, null, null, i32 0, metadata !71, i32 1466} ; [ DW_TAG_subprogram ]
!857 = metadata !{i32 786453, i32 0, metadata !"", i32 0, i32 0, i64 0, i64 0, i64 0, i32 0, null, metadata !858, i32 0, i32 0} ; [ DW_TAG_subroutine_type ]
!858 = metadata !{null, metadata !837, metadata !120}
!859 = metadata !{i32 786478, i32 0, metadata !821, metadata !"ap_int_base", metadata !"ap_int_base", metadata !"", metadata !59, i32 1467, metadata !860, i1 false, i1 false, i32 0, i32 0, null, i32 384, i1 false, null, null, i32 0, metadata !71, i32 1467} ; [ DW_TAG_subprogram ]
!860 = metadata !{i32 786453, i32 0, metadata !"", i32 0, i32 0, i64 0, i64 0, i64 0, i32 0, null, metadata !861, i32 0, i32 0} ; [ DW_TAG_subroutine_type ]
!861 = metadata !{null, metadata !837, metadata !124}
!862 = metadata !{i32 786478, i32 0, metadata !821, metadata !"ap_int_base", metadata !"ap_int_base", metadata !"", metadata !59, i32 1468, metadata !863, i1 false, i1 false, i32 0, i32 0, null, i32 384, i1 false, null, null, i32 0, metadata !71, i32 1468} ; [ DW_TAG_subprogram ]
!863 = metadata !{i32 786453, i32 0, metadata !"", i32 0, i32 0, i64 0, i64 0, i64 0, i32 0, null, metadata !864, i32 0, i32 0} ; [ DW_TAG_subroutine_type ]
!864 = metadata !{null, metadata !837, metadata !128}
!865 = metadata !{i32 786478, i32 0, metadata !821, metadata !"ap_int_base", metadata !"ap_int_base", metadata !"", metadata !59, i32 1469, metadata !866, i1 false, i1 false, i32 0, i32 0, null, i32 384, i1 false, null, null, i32 0, metadata !71, i32 1469} ; [ DW_TAG_subprogram ]
!866 = metadata !{i32 786453, i32 0, metadata !"", i32 0, i32 0, i64 0, i64 0, i64 0, i32 0, null, metadata !867, i32 0, i32 0} ; [ DW_TAG_subroutine_type ]
!867 = metadata !{null, metadata !837, metadata !132}
!868 = metadata !{i32 786478, i32 0, metadata !821, metadata !"ap_int_base", metadata !"ap_int_base", metadata !"", metadata !59, i32 1470, metadata !869, i1 false, i1 false, i32 0, i32 0, null, i32 384, i1 false, null, null, i32 0, metadata !71, i32 1470} ; [ DW_TAG_subprogram ]
!869 = metadata !{i32 786453, i32 0, metadata !"", i32 0, i32 0, i64 0, i64 0, i64 0, i32 0, null, metadata !870, i32 0, i32 0} ; [ DW_TAG_subroutine_type ]
!870 = metadata !{null, metadata !837, metadata !137}
!871 = metadata !{i32 786478, i32 0, metadata !821, metadata !"ap_int_base", metadata !"ap_int_base", metadata !"", metadata !59, i32 1471, metadata !872, i1 false, i1 false, i32 0, i32 0, null, i32 384, i1 false, null, null, i32 0, metadata !71, i32 1471} ; [ DW_TAG_subprogram ]
!872 = metadata !{i32 786453, i32 0, metadata !"", i32 0, i32 0, i64 0, i64 0, i64 0, i32 0, null, metadata !873, i32 0, i32 0} ; [ DW_TAG_subroutine_type ]
!873 = metadata !{null, metadata !837, metadata !142}
!874 = metadata !{i32 786478, i32 0, metadata !821, metadata !"ap_int_base", metadata !"ap_int_base", metadata !"", metadata !59, i32 1472, metadata !875, i1 false, i1 false, i32 0, i32 0, null, i32 384, i1 false, null, null, i32 0, metadata !71, i32 1472} ; [ DW_TAG_subprogram ]
!875 = metadata !{i32 786453, i32 0, metadata !"", i32 0, i32 0, i64 0, i64 0, i64 0, i32 0, null, metadata !876, i32 0, i32 0} ; [ DW_TAG_subroutine_type ]
!876 = metadata !{null, metadata !837, metadata !146}
!877 = metadata !{i32 786478, i32 0, metadata !821, metadata !"ap_int_base", metadata !"ap_int_base", metadata !"", metadata !59, i32 1499, metadata !878, i1 false, i1 false, i32 0, i32 0, null, i32 256, i1 false, null, null, i32 0, metadata !71, i32 1499} ; [ DW_TAG_subprogram ]
!878 = metadata !{i32 786453, i32 0, metadata !"", i32 0, i32 0, i64 0, i64 0, i64 0, i32 0, null, metadata !879, i32 0, i32 0} ; [ DW_TAG_subroutine_type ]
!879 = metadata !{null, metadata !837, metadata !150}
!880 = metadata !{i32 786478, i32 0, metadata !821, metadata !"ap_int_base", metadata !"ap_int_base", metadata !"", metadata !59, i32 1506, metadata !881, i1 false, i1 false, i32 0, i32 0, null, i32 256, i1 false, null, null, i32 0, metadata !71, i32 1506} ; [ DW_TAG_subprogram ]
!881 = metadata !{i32 786453, i32 0, metadata !"", i32 0, i32 0, i64 0, i64 0, i64 0, i32 0, null, metadata !882, i32 0, i32 0} ; [ DW_TAG_subroutine_type ]
!882 = metadata !{null, metadata !837, metadata !150, metadata !101}
!883 = metadata !{i32 786478, i32 0, metadata !821, metadata !"read", metadata !"read", metadata !"_ZNV11ap_int_baseILi9ELb1ELb1EE4readEv", metadata !59, i32 1527, metadata !884, i1 false, i1 false, i32 0, i32 0, null, i32 256, i1 false, null, null, i32 0, metadata !71, i32 1527} ; [ DW_TAG_subprogram ]
!884 = metadata !{i32 786453, i32 0, metadata !"", i32 0, i32 0, i64 0, i64 0, i64 0, i32 0, null, metadata !885, i32 0, i32 0} ; [ DW_TAG_subroutine_type ]
!885 = metadata !{metadata !821, metadata !886}
!886 = metadata !{i32 786447, i32 0, metadata !"", i32 0, i32 0, i64 32, i64 32, i64 0, i32 64, metadata !887} ; [ DW_TAG_pointer_type ]
!887 = metadata !{i32 786485, null, metadata !"", null, i32 0, i64 0, i64 0, i64 0, i32 0, metadata !821} ; [ DW_TAG_volatile_type ]
!888 = metadata !{i32 786478, i32 0, metadata !821, metadata !"write", metadata !"write", metadata !"_ZNV11ap_int_baseILi9ELb1ELb1EE5writeERKS0_", metadata !59, i32 1533, metadata !889, i1 false, i1 false, i32 0, i32 0, null, i32 256, i1 false, null, null, i32 0, metadata !71, i32 1533} ; [ DW_TAG_subprogram ]
!889 = metadata !{i32 786453, i32 0, metadata !"", i32 0, i32 0, i64 0, i64 0, i64 0, i32 0, null, metadata !890, i32 0, i32 0} ; [ DW_TAG_subroutine_type ]
!890 = metadata !{null, metadata !886, metadata !891}
!891 = metadata !{i32 786448, null, null, null, i32 0, i64 0, i64 0, i64 0, i32 0, metadata !892} ; [ DW_TAG_reference_type ]
!892 = metadata !{i32 786470, null, metadata !"", null, i32 0, i64 0, i64 0, i64 0, i32 0, metadata !821} ; [ DW_TAG_const_type ]
!893 = metadata !{i32 786478, i32 0, metadata !821, metadata !"operator=", metadata !"operator=", metadata !"_ZNV11ap_int_baseILi9ELb1ELb1EEaSERVKS0_", metadata !59, i32 1545, metadata !894, i1 false, i1 false, i32 0, i32 0, null, i32 256, i1 false, null, null, i32 0, metadata !71, i32 1545} ; [ DW_TAG_subprogram ]
!894 = metadata !{i32 786453, i32 0, metadata !"", i32 0, i32 0, i64 0, i64 0, i64 0, i32 0, null, metadata !895, i32 0, i32 0} ; [ DW_TAG_subroutine_type ]
!895 = metadata !{null, metadata !886, metadata !896}
!896 = metadata !{i32 786448, null, null, null, i32 0, i64 0, i64 0, i64 0, i32 0, metadata !897} ; [ DW_TAG_reference_type ]
!897 = metadata !{i32 786470, null, metadata !"", null, i32 0, i64 0, i64 0, i64 0, i32 0, metadata !887} ; [ DW_TAG_const_type ]
!898 = metadata !{i32 786478, i32 0, metadata !821, metadata !"operator=", metadata !"operator=", metadata !"_ZNV11ap_int_baseILi9ELb1ELb1EEaSERKS0_", metadata !59, i32 1554, metadata !889, i1 false, i1 false, i32 0, i32 0, null, i32 256, i1 false, null, null, i32 0, metadata !71, i32 1554} ; [ DW_TAG_subprogram ]
!899 = metadata !{i32 786478, i32 0, metadata !821, metadata !"operator=", metadata !"operator=", metadata !"_ZN11ap_int_baseILi9ELb1ELb1EEaSERVKS0_", metadata !59, i32 1577, metadata !900, i1 false, i1 false, i32 0, i32 0, null, i32 256, i1 false, null, null, i32 0, metadata !71, i32 1577} ; [ DW_TAG_subprogram ]
!900 = metadata !{i32 786453, i32 0, metadata !"", i32 0, i32 0, i64 0, i64 0, i64 0, i32 0, null, metadata !901, i32 0, i32 0} ; [ DW_TAG_subroutine_type ]
!901 = metadata !{metadata !902, metadata !837, metadata !896}
!902 = metadata !{i32 786448, null, null, null, i32 0, i64 0, i64 0, i64 0, i32 0, metadata !821} ; [ DW_TAG_reference_type ]
!903 = metadata !{i32 786478, i32 0, metadata !821, metadata !"operator=", metadata !"operator=", metadata !"_ZN11ap_int_baseILi9ELb1ELb1EEaSERKS0_", metadata !59, i32 1582, metadata !904, i1 false, i1 false, i32 0, i32 0, null, i32 256, i1 false, null, null, i32 0, metadata !71, i32 1582} ; [ DW_TAG_subprogram ]
!904 = metadata !{i32 786453, i32 0, metadata !"", i32 0, i32 0, i64 0, i64 0, i64 0, i32 0, null, metadata !905, i32 0, i32 0} ; [ DW_TAG_subroutine_type ]
!905 = metadata !{metadata !902, metadata !837, metadata !891}
!906 = metadata !{i32 786478, i32 0, metadata !821, metadata !"operator=", metadata !"operator=", metadata !"_ZN11ap_int_baseILi9ELb1ELb1EEaSEPKc", metadata !59, i32 1586, metadata !907, i1 false, i1 false, i32 0, i32 0, null, i32 256, i1 false, null, null, i32 0, metadata !71, i32 1586} ; [ DW_TAG_subprogram ]
!907 = metadata !{i32 786453, i32 0, metadata !"", i32 0, i32 0, i64 0, i64 0, i64 0, i32 0, null, metadata !908, i32 0, i32 0} ; [ DW_TAG_subroutine_type ]
!908 = metadata !{metadata !902, metadata !837, metadata !150}
!909 = metadata !{i32 786478, i32 0, metadata !821, metadata !"set", metadata !"set", metadata !"_ZN11ap_int_baseILi9ELb1ELb1EE3setEPKca", metadata !59, i32 1594, metadata !910, i1 false, i1 false, i32 0, i32 0, null, i32 256, i1 false, null, null, i32 0, metadata !71, i32 1594} ; [ DW_TAG_subprogram ]
!910 = metadata !{i32 786453, i32 0, metadata !"", i32 0, i32 0, i64 0, i64 0, i64 0, i32 0, null, metadata !911, i32 0, i32 0} ; [ DW_TAG_subroutine_type ]
!911 = metadata !{metadata !902, metadata !837, metadata !150, metadata !101}
!912 = metadata !{i32 786478, i32 0, metadata !821, metadata !"operator=", metadata !"operator=", metadata !"_ZN11ap_int_baseILi9ELb1ELb1EEaSEa", metadata !59, i32 1608, metadata !913, i1 false, i1 false, i32 0, i32 0, null, i32 256, i1 false, null, null, i32 0, metadata !71, i32 1608} ; [ DW_TAG_subprogram ]
!913 = metadata !{i32 786453, i32 0, metadata !"", i32 0, i32 0, i64 0, i64 0, i64 0, i32 0, null, metadata !914, i32 0, i32 0} ; [ DW_TAG_subroutine_type ]
!914 = metadata !{metadata !902, metadata !837, metadata !101}
!915 = metadata !{i32 786478, i32 0, metadata !821, metadata !"operator=", metadata !"operator=", metadata !"_ZN11ap_int_baseILi9ELb1ELb1EEaSEh", metadata !59, i32 1609, metadata !916, i1 false, i1 false, i32 0, i32 0, null, i32 256, i1 false, null, null, i32 0, metadata !71, i32 1609} ; [ DW_TAG_subprogram ]
!916 = metadata !{i32 786453, i32 0, metadata !"", i32 0, i32 0, i64 0, i64 0, i64 0, i32 0, null, metadata !917, i32 0, i32 0} ; [ DW_TAG_subroutine_type ]
!917 = metadata !{metadata !902, metadata !837, metadata !105}
!918 = metadata !{i32 786478, i32 0, metadata !821, metadata !"operator=", metadata !"operator=", metadata !"_ZN11ap_int_baseILi9ELb1ELb1EEaSEs", metadata !59, i32 1610, metadata !919, i1 false, i1 false, i32 0, i32 0, null, i32 256, i1 false, null, null, i32 0, metadata !71, i32 1610} ; [ DW_TAG_subprogram ]
!919 = metadata !{i32 786453, i32 0, metadata !"", i32 0, i32 0, i64 0, i64 0, i64 0, i32 0, null, metadata !920, i32 0, i32 0} ; [ DW_TAG_subroutine_type ]
!920 = metadata !{metadata !902, metadata !837, metadata !109}
!921 = metadata !{i32 786478, i32 0, metadata !821, metadata !"operator=", metadata !"operator=", metadata !"_ZN11ap_int_baseILi9ELb1ELb1EEaSEt", metadata !59, i32 1611, metadata !922, i1 false, i1 false, i32 0, i32 0, null, i32 256, i1 false, null, null, i32 0, metadata !71, i32 1611} ; [ DW_TAG_subprogram ]
!922 = metadata !{i32 786453, i32 0, metadata !"", i32 0, i32 0, i64 0, i64 0, i64 0, i32 0, null, metadata !923, i32 0, i32 0} ; [ DW_TAG_subroutine_type ]
!923 = metadata !{metadata !902, metadata !837, metadata !113}
!924 = metadata !{i32 786478, i32 0, metadata !821, metadata !"operator=", metadata !"operator=", metadata !"_ZN11ap_int_baseILi9ELb1ELb1EEaSEi", metadata !59, i32 1612, metadata !925, i1 false, i1 false, i32 0, i32 0, null, i32 256, i1 false, null, null, i32 0, metadata !71, i32 1612} ; [ DW_TAG_subprogram ]
!925 = metadata !{i32 786453, i32 0, metadata !"", i32 0, i32 0, i64 0, i64 0, i64 0, i32 0, null, metadata !926, i32 0, i32 0} ; [ DW_TAG_subroutine_type ]
!926 = metadata !{metadata !902, metadata !837, metadata !75}
!927 = metadata !{i32 786478, i32 0, metadata !821, metadata !"operator=", metadata !"operator=", metadata !"_ZN11ap_int_baseILi9ELb1ELb1EEaSEj", metadata !59, i32 1613, metadata !928, i1 false, i1 false, i32 0, i32 0, null, i32 256, i1 false, null, null, i32 0, metadata !71, i32 1613} ; [ DW_TAG_subprogram ]
!928 = metadata !{i32 786453, i32 0, metadata !"", i32 0, i32 0, i64 0, i64 0, i64 0, i32 0, null, metadata !929, i32 0, i32 0} ; [ DW_TAG_subroutine_type ]
!929 = metadata !{metadata !902, metadata !837, metadata !120}
!930 = metadata !{i32 786478, i32 0, metadata !821, metadata !"operator=", metadata !"operator=", metadata !"_ZN11ap_int_baseILi9ELb1ELb1EEaSEx", metadata !59, i32 1614, metadata !931, i1 false, i1 false, i32 0, i32 0, null, i32 256, i1 false, null, null, i32 0, metadata !71, i32 1614} ; [ DW_TAG_subprogram ]
!931 = metadata !{i32 786453, i32 0, metadata !"", i32 0, i32 0, i64 0, i64 0, i64 0, i32 0, null, metadata !932, i32 0, i32 0} ; [ DW_TAG_subroutine_type ]
!932 = metadata !{metadata !902, metadata !837, metadata !132}
!933 = metadata !{i32 786478, i32 0, metadata !821, metadata !"operator=", metadata !"operator=", metadata !"_ZN11ap_int_baseILi9ELb1ELb1EEaSEy", metadata !59, i32 1615, metadata !934, i1 false, i1 false, i32 0, i32 0, null, i32 256, i1 false, null, null, i32 0, metadata !71, i32 1615} ; [ DW_TAG_subprogram ]
!934 = metadata !{i32 786453, i32 0, metadata !"", i32 0, i32 0, i64 0, i64 0, i64 0, i32 0, null, metadata !935, i32 0, i32 0} ; [ DW_TAG_subroutine_type ]
!935 = metadata !{metadata !902, metadata !837, metadata !137}
!936 = metadata !{i32 786478, i32 0, metadata !821, metadata !"operator short", metadata !"operator short", metadata !"_ZNK11ap_int_baseILi9ELb1ELb1EEcvsEv", metadata !59, i32 1653, metadata !937, i1 false, i1 false, i32 0, i32 0, null, i32 256, i1 false, null, null, i32 0, metadata !71, i32 1653} ; [ DW_TAG_subprogram ]
!937 = metadata !{i32 786453, i32 0, metadata !"", i32 0, i32 0, i64 0, i64 0, i64 0, i32 0, null, metadata !938, i32 0, i32 0} ; [ DW_TAG_subroutine_type ]
!938 = metadata !{metadata !939, metadata !944}
!939 = metadata !{i32 786454, metadata !821, metadata !"RetType", metadata !59, i32 1402, i64 0, i64 0, i64 0, i32 0, metadata !940} ; [ DW_TAG_typedef ]
!940 = metadata !{i32 786454, metadata !941, metadata !"Type", metadata !59, i32 1373, i64 0, i64 0, i64 0, i32 0, metadata !109} ; [ DW_TAG_typedef ]
!941 = metadata !{i32 786434, null, metadata !"retval<2, true>", metadata !59, i32 1372, i64 8, i64 8, i32 0, i32 0, null, metadata !210, i32 0, null, metadata !942} ; [ DW_TAG_class_type ]
!942 = metadata !{metadata !943, metadata !633}
!943 = metadata !{i32 786480, null, metadata !"_AP_N", metadata !75, i64 2, null, i32 0, i32 0} ; [ DW_TAG_template_value_parameter ]
!944 = metadata !{i32 786447, i32 0, metadata !"", i32 0, i32 0, i64 32, i64 32, i64 0, i32 64, metadata !892} ; [ DW_TAG_pointer_type ]
!945 = metadata !{i32 786478, i32 0, metadata !821, metadata !"to_bool", metadata !"to_bool", metadata !"_ZNK11ap_int_baseILi9ELb1ELb1EE7to_boolEv", metadata !59, i32 1659, metadata !946, i1 false, i1 false, i32 0, i32 0, null, i32 256, i1 false, null, null, i32 0, metadata !71, i32 1659} ; [ DW_TAG_subprogram ]
!946 = metadata !{i32 786453, i32 0, metadata !"", i32 0, i32 0, i64 0, i64 0, i64 0, i32 0, null, metadata !947, i32 0, i32 0} ; [ DW_TAG_subroutine_type ]
!947 = metadata !{metadata !52, metadata !944}
!948 = metadata !{i32 786478, i32 0, metadata !821, metadata !"to_uchar", metadata !"to_uchar", metadata !"_ZNK11ap_int_baseILi9ELb1ELb1EE8to_ucharEv", metadata !59, i32 1660, metadata !949, i1 false, i1 false, i32 0, i32 0, null, i32 256, i1 false, null, null, i32 0, metadata !71, i32 1660} ; [ DW_TAG_subprogram ]
!949 = metadata !{i32 786453, i32 0, metadata !"", i32 0, i32 0, i64 0, i64 0, i64 0, i32 0, null, metadata !950, i32 0, i32 0} ; [ DW_TAG_subroutine_type ]
!950 = metadata !{metadata !105, metadata !944}
!951 = metadata !{i32 786478, i32 0, metadata !821, metadata !"to_char", metadata !"to_char", metadata !"_ZNK11ap_int_baseILi9ELb1ELb1EE7to_charEv", metadata !59, i32 1661, metadata !952, i1 false, i1 false, i32 0, i32 0, null, i32 256, i1 false, null, null, i32 0, metadata !71, i32 1661} ; [ DW_TAG_subprogram ]
!952 = metadata !{i32 786453, i32 0, metadata !"", i32 0, i32 0, i64 0, i64 0, i64 0, i32 0, null, metadata !953, i32 0, i32 0} ; [ DW_TAG_subroutine_type ]
!953 = metadata !{metadata !101, metadata !944}
!954 = metadata !{i32 786478, i32 0, metadata !821, metadata !"to_ushort", metadata !"to_ushort", metadata !"_ZNK11ap_int_baseILi9ELb1ELb1EE9to_ushortEv", metadata !59, i32 1662, metadata !955, i1 false, i1 false, i32 0, i32 0, null, i32 256, i1 false, null, null, i32 0, metadata !71, i32 1662} ; [ DW_TAG_subprogram ]
!955 = metadata !{i32 786453, i32 0, metadata !"", i32 0, i32 0, i64 0, i64 0, i64 0, i32 0, null, metadata !956, i32 0, i32 0} ; [ DW_TAG_subroutine_type ]
!956 = metadata !{metadata !113, metadata !944}
!957 = metadata !{i32 786478, i32 0, metadata !821, metadata !"to_short", metadata !"to_short", metadata !"_ZNK11ap_int_baseILi9ELb1ELb1EE8to_shortEv", metadata !59, i32 1663, metadata !958, i1 false, i1 false, i32 0, i32 0, null, i32 256, i1 false, null, null, i32 0, metadata !71, i32 1663} ; [ DW_TAG_subprogram ]
!958 = metadata !{i32 786453, i32 0, metadata !"", i32 0, i32 0, i64 0, i64 0, i64 0, i32 0, null, metadata !959, i32 0, i32 0} ; [ DW_TAG_subroutine_type ]
!959 = metadata !{metadata !109, metadata !944}
!960 = metadata !{i32 786478, i32 0, metadata !821, metadata !"to_int", metadata !"to_int", metadata !"_ZNK11ap_int_baseILi9ELb1ELb1EE6to_intEv", metadata !59, i32 1664, metadata !961, i1 false, i1 false, i32 0, i32 0, null, i32 256, i1 false, null, null, i32 0, metadata !71, i32 1664} ; [ DW_TAG_subprogram ]
!961 = metadata !{i32 786453, i32 0, metadata !"", i32 0, i32 0, i64 0, i64 0, i64 0, i32 0, null, metadata !962, i32 0, i32 0} ; [ DW_TAG_subroutine_type ]
!962 = metadata !{metadata !75, metadata !944}
!963 = metadata !{i32 786478, i32 0, metadata !821, metadata !"to_uint", metadata !"to_uint", metadata !"_ZNK11ap_int_baseILi9ELb1ELb1EE7to_uintEv", metadata !59, i32 1665, metadata !964, i1 false, i1 false, i32 0, i32 0, null, i32 256, i1 false, null, null, i32 0, metadata !71, i32 1665} ; [ DW_TAG_subprogram ]
!964 = metadata !{i32 786453, i32 0, metadata !"", i32 0, i32 0, i64 0, i64 0, i64 0, i32 0, null, metadata !965, i32 0, i32 0} ; [ DW_TAG_subroutine_type ]
!965 = metadata !{metadata !120, metadata !944}
!966 = metadata !{i32 786478, i32 0, metadata !821, metadata !"to_long", metadata !"to_long", metadata !"_ZNK11ap_int_baseILi9ELb1ELb1EE7to_longEv", metadata !59, i32 1666, metadata !967, i1 false, i1 false, i32 0, i32 0, null, i32 256, i1 false, null, null, i32 0, metadata !71, i32 1666} ; [ DW_TAG_subprogram ]
!967 = metadata !{i32 786453, i32 0, metadata !"", i32 0, i32 0, i64 0, i64 0, i64 0, i32 0, null, metadata !968, i32 0, i32 0} ; [ DW_TAG_subroutine_type ]
!968 = metadata !{metadata !124, metadata !944}
!969 = metadata !{i32 786478, i32 0, metadata !821, metadata !"to_ulong", metadata !"to_ulong", metadata !"_ZNK11ap_int_baseILi9ELb1ELb1EE8to_ulongEv", metadata !59, i32 1667, metadata !970, i1 false, i1 false, i32 0, i32 0, null, i32 256, i1 false, null, null, i32 0, metadata !71, i32 1667} ; [ DW_TAG_subprogram ]
!970 = metadata !{i32 786453, i32 0, metadata !"", i32 0, i32 0, i64 0, i64 0, i64 0, i32 0, null, metadata !971, i32 0, i32 0} ; [ DW_TAG_subroutine_type ]
!971 = metadata !{metadata !128, metadata !944}
!972 = metadata !{i32 786478, i32 0, metadata !821, metadata !"to_int64", metadata !"to_int64", metadata !"_ZNK11ap_int_baseILi9ELb1ELb1EE8to_int64Ev", metadata !59, i32 1668, metadata !973, i1 false, i1 false, i32 0, i32 0, null, i32 256, i1 false, null, null, i32 0, metadata !71, i32 1668} ; [ DW_TAG_subprogram ]
!973 = metadata !{i32 786453, i32 0, metadata !"", i32 0, i32 0, i64 0, i64 0, i64 0, i32 0, null, metadata !974, i32 0, i32 0} ; [ DW_TAG_subroutine_type ]
!974 = metadata !{metadata !132, metadata !944}
!975 = metadata !{i32 786478, i32 0, metadata !821, metadata !"to_uint64", metadata !"to_uint64", metadata !"_ZNK11ap_int_baseILi9ELb1ELb1EE9to_uint64Ev", metadata !59, i32 1669, metadata !976, i1 false, i1 false, i32 0, i32 0, null, i32 256, i1 false, null, null, i32 0, metadata !71, i32 1669} ; [ DW_TAG_subprogram ]
!976 = metadata !{i32 786453, i32 0, metadata !"", i32 0, i32 0, i64 0, i64 0, i64 0, i32 0, null, metadata !977, i32 0, i32 0} ; [ DW_TAG_subroutine_type ]
!977 = metadata !{metadata !137, metadata !944}
!978 = metadata !{i32 786478, i32 0, metadata !821, metadata !"to_double", metadata !"to_double", metadata !"_ZNK11ap_int_baseILi9ELb1ELb1EE9to_doubleEv", metadata !59, i32 1670, metadata !979, i1 false, i1 false, i32 0, i32 0, null, i32 256, i1 false, null, null, i32 0, metadata !71, i32 1670} ; [ DW_TAG_subprogram ]
!979 = metadata !{i32 786453, i32 0, metadata !"", i32 0, i32 0, i64 0, i64 0, i64 0, i32 0, null, metadata !980, i32 0, i32 0} ; [ DW_TAG_subroutine_type ]
!980 = metadata !{metadata !146, metadata !944}
!981 = metadata !{i32 786478, i32 0, metadata !821, metadata !"length", metadata !"length", metadata !"_ZNK11ap_int_baseILi9ELb1ELb1EE6lengthEv", metadata !59, i32 1684, metadata !961, i1 false, i1 false, i32 0, i32 0, null, i32 256, i1 false, null, null, i32 0, metadata !71, i32 1684} ; [ DW_TAG_subprogram ]
!982 = metadata !{i32 786478, i32 0, metadata !821, metadata !"length", metadata !"length", metadata !"_ZNVK11ap_int_baseILi9ELb1ELb1EE6lengthEv", metadata !59, i32 1685, metadata !983, i1 false, i1 false, i32 0, i32 0, null, i32 256, i1 false, null, null, i32 0, metadata !71, i32 1685} ; [ DW_TAG_subprogram ]
!983 = metadata !{i32 786453, i32 0, metadata !"", i32 0, i32 0, i64 0, i64 0, i64 0, i32 0, null, metadata !984, i32 0, i32 0} ; [ DW_TAG_subroutine_type ]
!984 = metadata !{metadata !75, metadata !985}
!985 = metadata !{i32 786447, i32 0, metadata !"", i32 0, i32 0, i64 32, i64 32, i64 0, i32 64, metadata !897} ; [ DW_TAG_pointer_type ]
!986 = metadata !{i32 786478, i32 0, metadata !821, metadata !"reverse", metadata !"reverse", metadata !"_ZN11ap_int_baseILi9ELb1ELb1EE7reverseEv", metadata !59, i32 1690, metadata !987, i1 false, i1 false, i32 0, i32 0, null, i32 256, i1 false, null, null, i32 0, metadata !71, i32 1690} ; [ DW_TAG_subprogram ]
!987 = metadata !{i32 786453, i32 0, metadata !"", i32 0, i32 0, i64 0, i64 0, i64 0, i32 0, null, metadata !988, i32 0, i32 0} ; [ DW_TAG_subroutine_type ]
!988 = metadata !{metadata !902, metadata !837}
!989 = metadata !{i32 786478, i32 0, metadata !821, metadata !"iszero", metadata !"iszero", metadata !"_ZNK11ap_int_baseILi9ELb1ELb1EE6iszeroEv", metadata !59, i32 1696, metadata !946, i1 false, i1 false, i32 0, i32 0, null, i32 256, i1 false, null, null, i32 0, metadata !71, i32 1696} ; [ DW_TAG_subprogram ]
!990 = metadata !{i32 786478, i32 0, metadata !821, metadata !"is_zero", metadata !"is_zero", metadata !"_ZNK11ap_int_baseILi9ELb1ELb1EE7is_zeroEv", metadata !59, i32 1701, metadata !946, i1 false, i1 false, i32 0, i32 0, null, i32 256, i1 false, null, null, i32 0, metadata !71, i32 1701} ; [ DW_TAG_subprogram ]
!991 = metadata !{i32 786478, i32 0, metadata !821, metadata !"sign", metadata !"sign", metadata !"_ZNK11ap_int_baseILi9ELb1ELb1EE4signEv", metadata !59, i32 1706, metadata !946, i1 false, i1 false, i32 0, i32 0, null, i32 256, i1 false, null, null, i32 0, metadata !71, i32 1706} ; [ DW_TAG_subprogram ]
!992 = metadata !{i32 786478, i32 0, metadata !821, metadata !"clear", metadata !"clear", metadata !"_ZN11ap_int_baseILi9ELb1ELb1EE5clearEi", metadata !59, i32 1714, metadata !854, i1 false, i1 false, i32 0, i32 0, null, i32 256, i1 false, null, null, i32 0, metadata !71, i32 1714} ; [ DW_TAG_subprogram ]
!993 = metadata !{i32 786478, i32 0, metadata !821, metadata !"invert", metadata !"invert", metadata !"_ZN11ap_int_baseILi9ELb1ELb1EE6invertEi", metadata !59, i32 1720, metadata !854, i1 false, i1 false, i32 0, i32 0, null, i32 256, i1 false, null, null, i32 0, metadata !71, i32 1720} ; [ DW_TAG_subprogram ]
!994 = metadata !{i32 786478, i32 0, metadata !821, metadata !"test", metadata !"test", metadata !"_ZNK11ap_int_baseILi9ELb1ELb1EE4testEi", metadata !59, i32 1728, metadata !995, i1 false, i1 false, i32 0, i32 0, null, i32 256, i1 false, null, null, i32 0, metadata !71, i32 1728} ; [ DW_TAG_subprogram ]
!995 = metadata !{i32 786453, i32 0, metadata !"", i32 0, i32 0, i64 0, i64 0, i64 0, i32 0, null, metadata !996, i32 0, i32 0} ; [ DW_TAG_subroutine_type ]
!996 = metadata !{metadata !52, metadata !944, metadata !75}
!997 = metadata !{i32 786478, i32 0, metadata !821, metadata !"set", metadata !"set", metadata !"_ZN11ap_int_baseILi9ELb1ELb1EE3setEi", metadata !59, i32 1734, metadata !854, i1 false, i1 false, i32 0, i32 0, null, i32 256, i1 false, null, null, i32 0, metadata !71, i32 1734} ; [ DW_TAG_subprogram ]
!998 = metadata !{i32 786478, i32 0, metadata !821, metadata !"set", metadata !"set", metadata !"_ZN11ap_int_baseILi9ELb1ELb1EE3setEib", metadata !59, i32 1740, metadata !999, i1 false, i1 false, i32 0, i32 0, null, i32 256, i1 false, null, null, i32 0, metadata !71, i32 1740} ; [ DW_TAG_subprogram ]
!999 = metadata !{i32 786453, i32 0, metadata !"", i32 0, i32 0, i64 0, i64 0, i64 0, i32 0, null, metadata !1000, i32 0, i32 0} ; [ DW_TAG_subroutine_type ]
!1000 = metadata !{null, metadata !837, metadata !75, metadata !52}
!1001 = metadata !{i32 786478, i32 0, metadata !821, metadata !"lrotate", metadata !"lrotate", metadata !"_ZN11ap_int_baseILi9ELb1ELb1EE7lrotateEi", metadata !59, i32 1747, metadata !854, i1 false, i1 false, i32 0, i32 0, null, i32 256, i1 false, null, null, i32 0, metadata !71, i32 1747} ; [ DW_TAG_subprogram ]
!1002 = metadata !{i32 786478, i32 0, metadata !821, metadata !"rrotate", metadata !"rrotate", metadata !"_ZN11ap_int_baseILi9ELb1ELb1EE7rrotateEi", metadata !59, i32 1756, metadata !854, i1 false, i1 false, i32 0, i32 0, null, i32 256, i1 false, null, null, i32 0, metadata !71, i32 1756} ; [ DW_TAG_subprogram ]
!1003 = metadata !{i32 786478, i32 0, metadata !821, metadata !"set_bit", metadata !"set_bit", metadata !"_ZN11ap_int_baseILi9ELb1ELb1EE7set_bitEib", metadata !59, i32 1764, metadata !999, i1 false, i1 false, i32 0, i32 0, null, i32 256, i1 false, null, null, i32 0, metadata !71, i32 1764} ; [ DW_TAG_subprogram ]
!1004 = metadata !{i32 786478, i32 0, metadata !821, metadata !"get_bit", metadata !"get_bit", metadata !"_ZNK11ap_int_baseILi9ELb1ELb1EE7get_bitEi", metadata !59, i32 1769, metadata !995, i1 false, i1 false, i32 0, i32 0, null, i32 256, i1 false, null, null, i32 0, metadata !71, i32 1769} ; [ DW_TAG_subprogram ]
!1005 = metadata !{i32 786478, i32 0, metadata !821, metadata !"b_not", metadata !"b_not", metadata !"_ZN11ap_int_baseILi9ELb1ELb1EE5b_notEv", metadata !59, i32 1774, metadata !835, i1 false, i1 false, i32 0, i32 0, null, i32 256, i1 false, null, null, i32 0, metadata !71, i32 1774} ; [ DW_TAG_subprogram ]
!1006 = metadata !{i32 786478, i32 0, metadata !821, metadata !"countLeadingZeros", metadata !"countLeadingZeros", metadata !"_ZN11ap_int_baseILi9ELb1ELb1EE17countLeadingZerosEv", metadata !59, i32 1781, metadata !1007, i1 false, i1 false, i32 0, i32 0, null, i32 256, i1 false, null, null, i32 0, metadata !71, i32 1781} ; [ DW_TAG_subprogram ]
!1007 = metadata !{i32 786453, i32 0, metadata !"", i32 0, i32 0, i64 0, i64 0, i64 0, i32 0, null, metadata !1008, i32 0, i32 0} ; [ DW_TAG_subroutine_type ]
!1008 = metadata !{metadata !75, metadata !837}
!1009 = metadata !{i32 786478, i32 0, metadata !821, metadata !"operator++", metadata !"operator++", metadata !"_ZN11ap_int_baseILi9ELb1ELb1EEppEv", metadata !59, i32 1838, metadata !987, i1 false, i1 false, i32 0, i32 0, null, i32 256, i1 false, null, null, i32 0, metadata !71, i32 1838} ; [ DW_TAG_subprogram ]
!1010 = metadata !{i32 786478, i32 0, metadata !821, metadata !"operator--", metadata !"operator--", metadata !"_ZN11ap_int_baseILi9ELb1ELb1EEmmEv", metadata !59, i32 1842, metadata !987, i1 false, i1 false, i32 0, i32 0, null, i32 256, i1 false, null, null, i32 0, metadata !71, i32 1842} ; [ DW_TAG_subprogram ]
!1011 = metadata !{i32 786478, i32 0, metadata !821, metadata !"operator++", metadata !"operator++", metadata !"_ZN11ap_int_baseILi9ELb1ELb1EEppEi", metadata !59, i32 1850, metadata !1012, i1 false, i1 false, i32 0, i32 0, null, i32 256, i1 false, null, null, i32 0, metadata !71, i32 1850} ; [ DW_TAG_subprogram ]
!1012 = metadata !{i32 786453, i32 0, metadata !"", i32 0, i32 0, i64 0, i64 0, i64 0, i32 0, null, metadata !1013, i32 0, i32 0} ; [ DW_TAG_subroutine_type ]
!1013 = metadata !{metadata !892, metadata !837, metadata !75}
!1014 = metadata !{i32 786478, i32 0, metadata !821, metadata !"operator--", metadata !"operator--", metadata !"_ZN11ap_int_baseILi9ELb1ELb1EEmmEi", metadata !59, i32 1855, metadata !1012, i1 false, i1 false, i32 0, i32 0, null, i32 256, i1 false, null, null, i32 0, metadata !71, i32 1855} ; [ DW_TAG_subprogram ]
!1015 = metadata !{i32 786478, i32 0, metadata !821, metadata !"operator+", metadata !"operator+", metadata !"_ZNK11ap_int_baseILi9ELb1ELb1EEpsEv", metadata !59, i32 1864, metadata !1016, i1 false, i1 false, i32 0, i32 0, null, i32 256, i1 false, null, null, i32 0, metadata !71, i32 1864} ; [ DW_TAG_subprogram ]
!1016 = metadata !{i32 786453, i32 0, metadata !"", i32 0, i32 0, i64 0, i64 0, i64 0, i32 0, null, metadata !1017, i32 0, i32 0} ; [ DW_TAG_subroutine_type ]
!1017 = metadata !{metadata !821, metadata !944}
!1018 = metadata !{i32 786478, i32 0, metadata !821, metadata !"operator!", metadata !"operator!", metadata !"_ZNK11ap_int_baseILi9ELb1ELb1EEntEv", metadata !59, i32 1870, metadata !946, i1 false, i1 false, i32 0, i32 0, null, i32 256, i1 false, null, null, i32 0, metadata !71, i32 1870} ; [ DW_TAG_subprogram ]
!1019 = metadata !{i32 786478, i32 0, metadata !821, metadata !"operator-", metadata !"operator-", metadata !"_ZNK11ap_int_baseILi9ELb1ELb1EEngEv", metadata !59, i32 1875, metadata !1020, i1 false, i1 false, i32 0, i32 0, null, i32 256, i1 false, null, null, i32 0, metadata !71, i32 1875} ; [ DW_TAG_subprogram ]
!1020 = metadata !{i32 786453, i32 0, metadata !"", i32 0, i32 0, i64 0, i64 0, i64 0, i32 0, null, metadata !1021, i32 0, i32 0} ; [ DW_TAG_subroutine_type ]
!1021 = metadata !{metadata !1022, metadata !944}
!1022 = metadata !{i32 786434, null, metadata !"ap_int_base<10, true, true>", metadata !59, i32 650, i32 0, i32 0, i32 0, i32 4, null, null, i32 0} ; [ DW_TAG_class_type ]
!1023 = metadata !{i32 786478, i32 0, metadata !821, metadata !"range", metadata !"range", metadata !"_ZN11ap_int_baseILi9ELb1ELb1EE5rangeEii", metadata !59, i32 2005, metadata !1024, i1 false, i1 false, i32 0, i32 0, null, i32 256, i1 false, null, null, i32 0, metadata !71, i32 2005} ; [ DW_TAG_subprogram ]
!1024 = metadata !{i32 786453, i32 0, metadata !"", i32 0, i32 0, i64 0, i64 0, i64 0, i32 0, null, metadata !1025, i32 0, i32 0} ; [ DW_TAG_subroutine_type ]
!1025 = metadata !{metadata !1026, metadata !837, metadata !75, metadata !75}
!1026 = metadata !{i32 786434, null, metadata !"ap_range_ref<9, true>", metadata !59, i32 923, i32 0, i32 0, i32 0, i32 4, null, null, i32 0} ; [ DW_TAG_class_type ]
!1027 = metadata !{i32 786478, i32 0, metadata !821, metadata !"operator()", metadata !"operator()", metadata !"_ZN11ap_int_baseILi9ELb1ELb1EEclEii", metadata !59, i32 2011, metadata !1024, i1 false, i1 false, i32 0, i32 0, null, i32 256, i1 false, null, null, i32 0, metadata !71, i32 2011} ; [ DW_TAG_subprogram ]
!1028 = metadata !{i32 786478, i32 0, metadata !821, metadata !"range", metadata !"range", metadata !"_ZNK11ap_int_baseILi9ELb1ELb1EE5rangeEii", metadata !59, i32 2017, metadata !1029, i1 false, i1 false, i32 0, i32 0, null, i32 256, i1 false, null, null, i32 0, metadata !71, i32 2017} ; [ DW_TAG_subprogram ]
!1029 = metadata !{i32 786453, i32 0, metadata !"", i32 0, i32 0, i64 0, i64 0, i64 0, i32 0, null, metadata !1030, i32 0, i32 0} ; [ DW_TAG_subroutine_type ]
!1030 = metadata !{metadata !1026, metadata !944, metadata !75, metadata !75}
!1031 = metadata !{i32 786478, i32 0, metadata !821, metadata !"operator()", metadata !"operator()", metadata !"_ZNK11ap_int_baseILi9ELb1ELb1EEclEii", metadata !59, i32 2023, metadata !1029, i1 false, i1 false, i32 0, i32 0, null, i32 256, i1 false, null, null, i32 0, metadata !71, i32 2023} ; [ DW_TAG_subprogram ]
!1032 = metadata !{i32 786478, i32 0, metadata !821, metadata !"operator[]", metadata !"operator[]", metadata !"_ZN11ap_int_baseILi9ELb1ELb1EEixEi", metadata !59, i32 2042, metadata !1033, i1 false, i1 false, i32 0, i32 0, null, i32 256, i1 false, null, null, i32 0, metadata !71, i32 2042} ; [ DW_TAG_subprogram ]
!1033 = metadata !{i32 786453, i32 0, metadata !"", i32 0, i32 0, i64 0, i64 0, i64 0, i32 0, null, metadata !1034, i32 0, i32 0} ; [ DW_TAG_subroutine_type ]
!1034 = metadata !{metadata !1035, metadata !837, metadata !75}
!1035 = metadata !{i32 786434, null, metadata !"ap_bit_ref<9, true>", metadata !59, i32 1193, i64 64, i64 32, i32 0, i32 0, null, metadata !1036, i32 0, null, metadata !1069} ; [ DW_TAG_class_type ]
!1036 = metadata !{metadata !1037, metadata !1038, metadata !1039, metadata !1045, metadata !1049, metadata !1053, metadata !1054, metadata !1058, metadata !1061, metadata !1062, metadata !1065, metadata !1066}
!1037 = metadata !{i32 786445, metadata !1035, metadata !"d_bv", metadata !59, i32 1194, i64 32, i64 32, i64 0, i32 0, metadata !902} ; [ DW_TAG_member ]
!1038 = metadata !{i32 786445, metadata !1035, metadata !"d_index", metadata !59, i32 1195, i64 32, i64 32, i64 32, i32 0, metadata !75} ; [ DW_TAG_member ]
!1039 = metadata !{i32 786478, i32 0, metadata !1035, metadata !"ap_bit_ref", metadata !"ap_bit_ref", metadata !"", metadata !59, i32 1198, metadata !1040, i1 false, i1 false, i32 0, i32 0, null, i32 256, i1 false, null, null, i32 0, metadata !71, i32 1198} ; [ DW_TAG_subprogram ]
!1040 = metadata !{i32 786453, i32 0, metadata !"", i32 0, i32 0, i64 0, i64 0, i64 0, i32 0, null, metadata !1041, i32 0, i32 0} ; [ DW_TAG_subroutine_type ]
!1041 = metadata !{null, metadata !1042, metadata !1043}
!1042 = metadata !{i32 786447, i32 0, metadata !"", i32 0, i32 0, i64 32, i64 32, i64 0, i32 64, metadata !1035} ; [ DW_TAG_pointer_type ]
!1043 = metadata !{i32 786448, null, null, null, i32 0, i64 0, i64 0, i64 0, i32 0, metadata !1044} ; [ DW_TAG_reference_type ]
!1044 = metadata !{i32 786470, null, metadata !"", null, i32 0, i64 0, i64 0, i64 0, i32 0, metadata !1035} ; [ DW_TAG_const_type ]
!1045 = metadata !{i32 786478, i32 0, metadata !1035, metadata !"ap_bit_ref", metadata !"ap_bit_ref", metadata !"", metadata !59, i32 1201, metadata !1046, i1 false, i1 false, i32 0, i32 0, null, i32 256, i1 false, null, null, i32 0, metadata !71, i32 1201} ; [ DW_TAG_subprogram ]
!1046 = metadata !{i32 786453, i32 0, metadata !"", i32 0, i32 0, i64 0, i64 0, i64 0, i32 0, null, metadata !1047, i32 0, i32 0} ; [ DW_TAG_subroutine_type ]
!1047 = metadata !{null, metadata !1042, metadata !1048, metadata !75}
!1048 = metadata !{i32 786447, null, metadata !"", null, i32 0, i64 32, i64 32, i64 0, i32 0, metadata !821} ; [ DW_TAG_pointer_type ]
!1049 = metadata !{i32 786478, i32 0, metadata !1035, metadata !"operator _Bool", metadata !"operator _Bool", metadata !"_ZNK10ap_bit_refILi9ELb1EEcvbEv", metadata !59, i32 1203, metadata !1050, i1 false, i1 false, i32 0, i32 0, null, i32 256, i1 false, null, null, i32 0, metadata !71, i32 1203} ; [ DW_TAG_subprogram ]
!1050 = metadata !{i32 786453, i32 0, metadata !"", i32 0, i32 0, i64 0, i64 0, i64 0, i32 0, null, metadata !1051, i32 0, i32 0} ; [ DW_TAG_subroutine_type ]
!1051 = metadata !{metadata !52, metadata !1052}
!1052 = metadata !{i32 786447, i32 0, metadata !"", i32 0, i32 0, i64 32, i64 32, i64 0, i32 64, metadata !1044} ; [ DW_TAG_pointer_type ]
!1053 = metadata !{i32 786478, i32 0, metadata !1035, metadata !"to_bool", metadata !"to_bool", metadata !"_ZNK10ap_bit_refILi9ELb1EE7to_boolEv", metadata !59, i32 1204, metadata !1050, i1 false, i1 false, i32 0, i32 0, null, i32 256, i1 false, null, null, i32 0, metadata !71, i32 1204} ; [ DW_TAG_subprogram ]
!1054 = metadata !{i32 786478, i32 0, metadata !1035, metadata !"operator=", metadata !"operator=", metadata !"_ZN10ap_bit_refILi9ELb1EEaSEy", metadata !59, i32 1206, metadata !1055, i1 false, i1 false, i32 0, i32 0, null, i32 256, i1 false, null, null, i32 0, metadata !71, i32 1206} ; [ DW_TAG_subprogram ]
!1055 = metadata !{i32 786453, i32 0, metadata !"", i32 0, i32 0, i64 0, i64 0, i64 0, i32 0, null, metadata !1056, i32 0, i32 0} ; [ DW_TAG_subroutine_type ]
!1056 = metadata !{metadata !1057, metadata !1042, metadata !138}
!1057 = metadata !{i32 786448, null, null, null, i32 0, i64 0, i64 0, i64 0, i32 0, metadata !1035} ; [ DW_TAG_reference_type ]
!1058 = metadata !{i32 786478, i32 0, metadata !1035, metadata !"operator=", metadata !"operator=", metadata !"_ZN10ap_bit_refILi9ELb1EEaSERKS0_", metadata !59, i32 1226, metadata !1059, i1 false, i1 false, i32 0, i32 0, null, i32 256, i1 false, null, null, i32 0, metadata !71, i32 1226} ; [ DW_TAG_subprogram ]
!1059 = metadata !{i32 786453, i32 0, metadata !"", i32 0, i32 0, i64 0, i64 0, i64 0, i32 0, null, metadata !1060, i32 0, i32 0} ; [ DW_TAG_subroutine_type ]
!1060 = metadata !{metadata !1057, metadata !1042, metadata !1043}
!1061 = metadata !{i32 786478, i32 0, metadata !1035, metadata !"get", metadata !"get", metadata !"_ZNK10ap_bit_refILi9ELb1EE3getEv", metadata !59, i32 1334, metadata !1050, i1 false, i1 false, i32 0, i32 0, null, i32 256, i1 false, null, null, i32 0, metadata !71, i32 1334} ; [ DW_TAG_subprogram ]
!1062 = metadata !{i32 786478, i32 0, metadata !1035, metadata !"get", metadata !"get", metadata !"_ZN10ap_bit_refILi9ELb1EE3getEv", metadata !59, i32 1338, metadata !1063, i1 false, i1 false, i32 0, i32 0, null, i32 256, i1 false, null, null, i32 0, metadata !71, i32 1338} ; [ DW_TAG_subprogram ]
!1063 = metadata !{i32 786453, i32 0, metadata !"", i32 0, i32 0, i64 0, i64 0, i64 0, i32 0, null, metadata !1064, i32 0, i32 0} ; [ DW_TAG_subroutine_type ]
!1064 = metadata !{metadata !52, metadata !1042}
!1065 = metadata !{i32 786478, i32 0, metadata !1035, metadata !"operator~", metadata !"operator~", metadata !"_ZNK10ap_bit_refILi9ELb1EEcoEv", metadata !59, i32 1347, metadata !1050, i1 false, i1 false, i32 0, i32 0, null, i32 256, i1 false, null, null, i32 0, metadata !71, i32 1347} ; [ DW_TAG_subprogram ]
!1066 = metadata !{i32 786478, i32 0, metadata !1035, metadata !"length", metadata !"length", metadata !"_ZNK10ap_bit_refILi9ELb1EE6lengthEv", metadata !59, i32 1352, metadata !1067, i1 false, i1 false, i32 0, i32 0, null, i32 256, i1 false, null, null, i32 0, metadata !71, i32 1352} ; [ DW_TAG_subprogram ]
!1067 = metadata !{i32 786453, i32 0, metadata !"", i32 0, i32 0, i64 0, i64 0, i64 0, i32 0, null, metadata !1068, i32 0, i32 0} ; [ DW_TAG_subroutine_type ]
!1068 = metadata !{metadata !75, metadata !1052}
!1069 = metadata !{metadata !1070, metadata !633}
!1070 = metadata !{i32 786480, null, metadata !"_AP_W", metadata !75, i64 9, null, i32 0, i32 0} ; [ DW_TAG_template_value_parameter ]
!1071 = metadata !{i32 786478, i32 0, metadata !821, metadata !"operator[]", metadata !"operator[]", metadata !"_ZNK11ap_int_baseILi9ELb1ELb1EEixEi", metadata !59, i32 2056, metadata !995, i1 false, i1 false, i32 0, i32 0, null, i32 256, i1 false, null, null, i32 0, metadata !71, i32 2056} ; [ DW_TAG_subprogram ]
!1072 = metadata !{i32 786478, i32 0, metadata !821, metadata !"bit", metadata !"bit", metadata !"_ZN11ap_int_baseILi9ELb1ELb1EE3bitEi", metadata !59, i32 2070, metadata !1033, i1 false, i1 false, i32 0, i32 0, null, i32 256, i1 false, null, null, i32 0, metadata !71, i32 2070} ; [ DW_TAG_subprogram ]
!1073 = metadata !{i32 786478, i32 0, metadata !821, metadata !"bit", metadata !"bit", metadata !"_ZNK11ap_int_baseILi9ELb1ELb1EE3bitEi", metadata !59, i32 2084, metadata !995, i1 false, i1 false, i32 0, i32 0, null, i32 256, i1 false, null, null, i32 0, metadata !71, i32 2084} ; [ DW_TAG_subprogram ]
!1074 = metadata !{i32 786478, i32 0, metadata !821, metadata !"and_reduce", metadata !"and_reduce", metadata !"_ZN11ap_int_baseILi9ELb1ELb1EE10and_reduceEv", metadata !59, i32 2264, metadata !1075, i1 false, i1 false, i32 0, i32 0, null, i32 256, i1 false, null, null, i32 0, metadata !71, i32 2264} ; [ DW_TAG_subprogram ]
!1075 = metadata !{i32 786453, i32 0, metadata !"", i32 0, i32 0, i64 0, i64 0, i64 0, i32 0, null, metadata !1076, i32 0, i32 0} ; [ DW_TAG_subroutine_type ]
!1076 = metadata !{metadata !52, metadata !837}
!1077 = metadata !{i32 786478, i32 0, metadata !821, metadata !"nand_reduce", metadata !"nand_reduce", metadata !"_ZN11ap_int_baseILi9ELb1ELb1EE11nand_reduceEv", metadata !59, i32 2267, metadata !1075, i1 false, i1 false, i32 0, i32 0, null, i32 256, i1 false, null, null, i32 0, metadata !71, i32 2267} ; [ DW_TAG_subprogram ]
!1078 = metadata !{i32 786478, i32 0, metadata !821, metadata !"or_reduce", metadata !"or_reduce", metadata !"_ZN11ap_int_baseILi9ELb1ELb1EE9or_reduceEv", metadata !59, i32 2270, metadata !1075, i1 false, i1 false, i32 0, i32 0, null, i32 256, i1 false, null, null, i32 0, metadata !71, i32 2270} ; [ DW_TAG_subprogram ]
!1079 = metadata !{i32 786478, i32 0, metadata !821, metadata !"nor_reduce", metadata !"nor_reduce", metadata !"_ZN11ap_int_baseILi9ELb1ELb1EE10nor_reduceEv", metadata !59, i32 2273, metadata !1075, i1 false, i1 false, i32 0, i32 0, null, i32 256, i1 false, null, null, i32 0, metadata !71, i32 2273} ; [ DW_TAG_subprogram ]
!1080 = metadata !{i32 786478, i32 0, metadata !821, metadata !"xor_reduce", metadata !"xor_reduce", metadata !"_ZN11ap_int_baseILi9ELb1ELb1EE10xor_reduceEv", metadata !59, i32 2276, metadata !1075, i1 false, i1 false, i32 0, i32 0, null, i32 256, i1 false, null, null, i32 0, metadata !71, i32 2276} ; [ DW_TAG_subprogram ]
!1081 = metadata !{i32 786478, i32 0, metadata !821, metadata !"xnor_reduce", metadata !"xnor_reduce", metadata !"_ZN11ap_int_baseILi9ELb1ELb1EE11xnor_reduceEv", metadata !59, i32 2279, metadata !1075, i1 false, i1 false, i32 0, i32 0, null, i32 256, i1 false, null, null, i32 0, metadata !71, i32 2279} ; [ DW_TAG_subprogram ]
!1082 = metadata !{i32 786478, i32 0, metadata !821, metadata !"and_reduce", metadata !"and_reduce", metadata !"_ZNK11ap_int_baseILi9ELb1ELb1EE10and_reduceEv", metadata !59, i32 2283, metadata !946, i1 false, i1 false, i32 0, i32 0, null, i32 256, i1 false, null, null, i32 0, metadata !71, i32 2283} ; [ DW_TAG_subprogram ]
!1083 = metadata !{i32 786478, i32 0, metadata !821, metadata !"nand_reduce", metadata !"nand_reduce", metadata !"_ZNK11ap_int_baseILi9ELb1ELb1EE11nand_reduceEv", metadata !59, i32 2286, metadata !946, i1 false, i1 false, i32 0, i32 0, null, i32 256, i1 false, null, null, i32 0, metadata !71, i32 2286} ; [ DW_TAG_subprogram ]
!1084 = metadata !{i32 786478, i32 0, metadata !821, metadata !"or_reduce", metadata !"or_reduce", metadata !"_ZNK11ap_int_baseILi9ELb1ELb1EE9or_reduceEv", metadata !59, i32 2289, metadata !946, i1 false, i1 false, i32 0, i32 0, null, i32 256, i1 false, null, null, i32 0, metadata !71, i32 2289} ; [ DW_TAG_subprogram ]
!1085 = metadata !{i32 786478, i32 0, metadata !821, metadata !"nor_reduce", metadata !"nor_reduce", metadata !"_ZNK11ap_int_baseILi9ELb1ELb1EE10nor_reduceEv", metadata !59, i32 2292, metadata !946, i1 false, i1 false, i32 0, i32 0, null, i32 256, i1 false, null, null, i32 0, metadata !71, i32 2292} ; [ DW_TAG_subprogram ]
!1086 = metadata !{i32 786478, i32 0, metadata !821, metadata !"xor_reduce", metadata !"xor_reduce", metadata !"_ZNK11ap_int_baseILi9ELb1ELb1EE10xor_reduceEv", metadata !59, i32 2295, metadata !946, i1 false, i1 false, i32 0, i32 0, null, i32 256, i1 false, null, null, i32 0, metadata !71, i32 2295} ; [ DW_TAG_subprogram ]
!1087 = metadata !{i32 786478, i32 0, metadata !821, metadata !"xnor_reduce", metadata !"xnor_reduce", metadata !"_ZNK11ap_int_baseILi9ELb1ELb1EE11xnor_reduceEv", metadata !59, i32 2298, metadata !946, i1 false, i1 false, i32 0, i32 0, null, i32 256, i1 false, null, null, i32 0, metadata !71, i32 2298} ; [ DW_TAG_subprogram ]
!1088 = metadata !{i32 786478, i32 0, metadata !821, metadata !"to_string", metadata !"to_string", metadata !"_ZNK11ap_int_baseILi9ELb1ELb1EE9to_stringEPci8BaseModeb", metadata !59, i32 2305, metadata !1089, i1 false, i1 false, i32 0, i32 0, null, i32 256, i1 false, null, null, i32 0, metadata !71, i32 2305} ; [ DW_TAG_subprogram ]
!1089 = metadata !{i32 786453, i32 0, metadata !"", i32 0, i32 0, i64 0, i64 0, i64 0, i32 0, null, metadata !1090, i32 0, i32 0} ; [ DW_TAG_subroutine_type ]
!1090 = metadata !{null, metadata !944, metadata !325, metadata !75, metadata !326, metadata !52}
!1091 = metadata !{i32 786478, i32 0, metadata !821, metadata !"to_string", metadata !"to_string", metadata !"_ZNK11ap_int_baseILi9ELb1ELb1EE9to_stringE8BaseModeb", metadata !59, i32 2332, metadata !1092, i1 false, i1 false, i32 0, i32 0, null, i32 256, i1 false, null, null, i32 0, metadata !71, i32 2332} ; [ DW_TAG_subprogram ]
!1092 = metadata !{i32 786453, i32 0, metadata !"", i32 0, i32 0, i64 0, i64 0, i64 0, i32 0, null, metadata !1093, i32 0, i32 0} ; [ DW_TAG_subroutine_type ]
!1093 = metadata !{metadata !325, metadata !944, metadata !326, metadata !52}
!1094 = metadata !{i32 786478, i32 0, metadata !821, metadata !"to_string", metadata !"to_string", metadata !"_ZNK11ap_int_baseILi9ELb1ELb1EE9to_stringEab", metadata !59, i32 2336, metadata !1095, i1 false, i1 false, i32 0, i32 0, null, i32 256, i1 false, null, null, i32 0, metadata !71, i32 2336} ; [ DW_TAG_subprogram ]
!1095 = metadata !{i32 786453, i32 0, metadata !"", i32 0, i32 0, i64 0, i64 0, i64 0, i32 0, null, metadata !1096, i32 0, i32 0} ; [ DW_TAG_subroutine_type ]
!1096 = metadata !{metadata !325, metadata !944, metadata !101, metadata !52}
!1097 = metadata !{metadata !1070, metadata !633, metadata !340}
!1098 = metadata !{i32 786478, i32 0, metadata !620, metadata !"range", metadata !"range", metadata !"_ZN11ap_int_baseILi8ELb1ELb1EE5rangeEii", metadata !59, i32 2005, metadata !1099, i1 false, i1 false, i32 0, i32 0, null, i32 256, i1 false, null, null, i32 0, metadata !71, i32 2005} ; [ DW_TAG_subprogram ]
!1099 = metadata !{i32 786453, i32 0, metadata !"", i32 0, i32 0, i64 0, i64 0, i64 0, i32 0, null, metadata !1100, i32 0, i32 0} ; [ DW_TAG_subroutine_type ]
!1100 = metadata !{metadata !1101, metadata !637, metadata !75, metadata !75}
!1101 = metadata !{i32 786434, null, metadata !"ap_range_ref<8, true>", metadata !59, i32 923, i32 0, i32 0, i32 0, i32 4, null, null, i32 0} ; [ DW_TAG_class_type ]
!1102 = metadata !{i32 786478, i32 0, metadata !620, metadata !"operator()", metadata !"operator()", metadata !"_ZN11ap_int_baseILi8ELb1ELb1EEclEii", metadata !59, i32 2011, metadata !1099, i1 false, i1 false, i32 0, i32 0, null, i32 256, i1 false, null, null, i32 0, metadata !71, i32 2011} ; [ DW_TAG_subprogram ]
!1103 = metadata !{i32 786478, i32 0, metadata !620, metadata !"range", metadata !"range", metadata !"_ZNK11ap_int_baseILi8ELb1ELb1EE5rangeEii", metadata !59, i32 2017, metadata !1104, i1 false, i1 false, i32 0, i32 0, null, i32 256, i1 false, null, null, i32 0, metadata !71, i32 2017} ; [ DW_TAG_subprogram ]
!1104 = metadata !{i32 786453, i32 0, metadata !"", i32 0, i32 0, i64 0, i64 0, i64 0, i32 0, null, metadata !1105, i32 0, i32 0} ; [ DW_TAG_subroutine_type ]
!1105 = metadata !{metadata !1101, metadata !743, metadata !75, metadata !75}
!1106 = metadata !{i32 786478, i32 0, metadata !620, metadata !"operator()", metadata !"operator()", metadata !"_ZNK11ap_int_baseILi8ELb1ELb1EEclEii", metadata !59, i32 2023, metadata !1104, i1 false, i1 false, i32 0, i32 0, null, i32 256, i1 false, null, null, i32 0, metadata !71, i32 2023} ; [ DW_TAG_subprogram ]
!1107 = metadata !{i32 786478, i32 0, metadata !620, metadata !"operator[]", metadata !"operator[]", metadata !"_ZN11ap_int_baseILi8ELb1ELb1EEixEi", metadata !59, i32 2042, metadata !1108, i1 false, i1 false, i32 0, i32 0, null, i32 256, i1 false, null, null, i32 0, metadata !71, i32 2042} ; [ DW_TAG_subprogram ]
!1108 = metadata !{i32 786453, i32 0, metadata !"", i32 0, i32 0, i64 0, i64 0, i64 0, i32 0, null, metadata !1109, i32 0, i32 0} ; [ DW_TAG_subroutine_type ]
!1109 = metadata !{metadata !1110, metadata !637, metadata !75}
!1110 = metadata !{i32 786434, null, metadata !"ap_bit_ref<8, true>", metadata !59, i32 1193, i32 0, i32 0, i32 0, i32 4, null, null, i32 0} ; [ DW_TAG_class_type ]
!1111 = metadata !{i32 786478, i32 0, metadata !620, metadata !"operator[]", metadata !"operator[]", metadata !"_ZNK11ap_int_baseILi8ELb1ELb1EEixEi", metadata !59, i32 2056, metadata !794, i1 false, i1 false, i32 0, i32 0, null, i32 256, i1 false, null, null, i32 0, metadata !71, i32 2056} ; [ DW_TAG_subprogram ]
!1112 = metadata !{i32 786478, i32 0, metadata !620, metadata !"bit", metadata !"bit", metadata !"_ZN11ap_int_baseILi8ELb1ELb1EE3bitEi", metadata !59, i32 2070, metadata !1108, i1 false, i1 false, i32 0, i32 0, null, i32 256, i1 false, null, null, i32 0, metadata !71, i32 2070} ; [ DW_TAG_subprogram ]
!1113 = metadata !{i32 786478, i32 0, metadata !620, metadata !"bit", metadata !"bit", metadata !"_ZNK11ap_int_baseILi8ELb1ELb1EE3bitEi", metadata !59, i32 2084, metadata !794, i1 false, i1 false, i32 0, i32 0, null, i32 256, i1 false, null, null, i32 0, metadata !71, i32 2084} ; [ DW_TAG_subprogram ]
!1114 = metadata !{i32 786478, i32 0, metadata !620, metadata !"and_reduce", metadata !"and_reduce", metadata !"_ZN11ap_int_baseILi8ELb1ELb1EE10and_reduceEv", metadata !59, i32 2264, metadata !1115, i1 false, i1 false, i32 0, i32 0, null, i32 256, i1 false, null, null, i32 0, metadata !71, i32 2264} ; [ DW_TAG_subprogram ]
!1115 = metadata !{i32 786453, i32 0, metadata !"", i32 0, i32 0, i64 0, i64 0, i64 0, i32 0, null, metadata !1116, i32 0, i32 0} ; [ DW_TAG_subroutine_type ]
!1116 = metadata !{metadata !52, metadata !637}
!1117 = metadata !{i32 786478, i32 0, metadata !620, metadata !"nand_reduce", metadata !"nand_reduce", metadata !"_ZN11ap_int_baseILi8ELb1ELb1EE11nand_reduceEv", metadata !59, i32 2267, metadata !1115, i1 false, i1 false, i32 0, i32 0, null, i32 256, i1 false, null, null, i32 0, metadata !71, i32 2267} ; [ DW_TAG_subprogram ]
!1118 = metadata !{i32 786478, i32 0, metadata !620, metadata !"or_reduce", metadata !"or_reduce", metadata !"_ZN11ap_int_baseILi8ELb1ELb1EE9or_reduceEv", metadata !59, i32 2270, metadata !1115, i1 false, i1 false, i32 0, i32 0, null, i32 256, i1 false, null, null, i32 0, metadata !71, i32 2270} ; [ DW_TAG_subprogram ]
!1119 = metadata !{i32 786478, i32 0, metadata !620, metadata !"nor_reduce", metadata !"nor_reduce", metadata !"_ZN11ap_int_baseILi8ELb1ELb1EE10nor_reduceEv", metadata !59, i32 2273, metadata !1115, i1 false, i1 false, i32 0, i32 0, null, i32 256, i1 false, null, null, i32 0, metadata !71, i32 2273} ; [ DW_TAG_subprogram ]
!1120 = metadata !{i32 786478, i32 0, metadata !620, metadata !"xor_reduce", metadata !"xor_reduce", metadata !"_ZN11ap_int_baseILi8ELb1ELb1EE10xor_reduceEv", metadata !59, i32 2276, metadata !1115, i1 false, i1 false, i32 0, i32 0, null, i32 256, i1 false, null, null, i32 0, metadata !71, i32 2276} ; [ DW_TAG_subprogram ]
!1121 = metadata !{i32 786478, i32 0, metadata !620, metadata !"xnor_reduce", metadata !"xnor_reduce", metadata !"_ZN11ap_int_baseILi8ELb1ELb1EE11xnor_reduceEv", metadata !59, i32 2279, metadata !1115, i1 false, i1 false, i32 0, i32 0, null, i32 256, i1 false, null, null, i32 0, metadata !71, i32 2279} ; [ DW_TAG_subprogram ]
!1122 = metadata !{i32 786478, i32 0, metadata !620, metadata !"and_reduce", metadata !"and_reduce", metadata !"_ZNK11ap_int_baseILi8ELb1ELb1EE10and_reduceEv", metadata !59, i32 2283, metadata !745, i1 false, i1 false, i32 0, i32 0, null, i32 256, i1 false, null, null, i32 0, metadata !71, i32 2283} ; [ DW_TAG_subprogram ]
!1123 = metadata !{i32 786478, i32 0, metadata !620, metadata !"nand_reduce", metadata !"nand_reduce", metadata !"_ZNK11ap_int_baseILi8ELb1ELb1EE11nand_reduceEv", metadata !59, i32 2286, metadata !745, i1 false, i1 false, i32 0, i32 0, null, i32 256, i1 false, null, null, i32 0, metadata !71, i32 2286} ; [ DW_TAG_subprogram ]
!1124 = metadata !{i32 786478, i32 0, metadata !620, metadata !"or_reduce", metadata !"or_reduce", metadata !"_ZNK11ap_int_baseILi8ELb1ELb1EE9or_reduceEv", metadata !59, i32 2289, metadata !745, i1 false, i1 false, i32 0, i32 0, null, i32 256, i1 false, null, null, i32 0, metadata !71, i32 2289} ; [ DW_TAG_subprogram ]
!1125 = metadata !{i32 786478, i32 0, metadata !620, metadata !"nor_reduce", metadata !"nor_reduce", metadata !"_ZNK11ap_int_baseILi8ELb1ELb1EE10nor_reduceEv", metadata !59, i32 2292, metadata !745, i1 false, i1 false, i32 0, i32 0, null, i32 256, i1 false, null, null, i32 0, metadata !71, i32 2292} ; [ DW_TAG_subprogram ]
!1126 = metadata !{i32 786478, i32 0, metadata !620, metadata !"xor_reduce", metadata !"xor_reduce", metadata !"_ZNK11ap_int_baseILi8ELb1ELb1EE10xor_reduceEv", metadata !59, i32 2295, metadata !745, i1 false, i1 false, i32 0, i32 0, null, i32 256, i1 false, null, null, i32 0, metadata !71, i32 2295} ; [ DW_TAG_subprogram ]
!1127 = metadata !{i32 786478, i32 0, metadata !620, metadata !"xnor_reduce", metadata !"xnor_reduce", metadata !"_ZNK11ap_int_baseILi8ELb1ELb1EE11xnor_reduceEv", metadata !59, i32 2298, metadata !745, i1 false, i1 false, i32 0, i32 0, null, i32 256, i1 false, null, null, i32 0, metadata !71, i32 2298} ; [ DW_TAG_subprogram ]
!1128 = metadata !{i32 786478, i32 0, metadata !620, metadata !"to_string", metadata !"to_string", metadata !"_ZNK11ap_int_baseILi8ELb1ELb1EE9to_stringEPci8BaseModeb", metadata !59, i32 2305, metadata !1129, i1 false, i1 false, i32 0, i32 0, null, i32 256, i1 false, null, null, i32 0, metadata !71, i32 2305} ; [ DW_TAG_subprogram ]
!1129 = metadata !{i32 786453, i32 0, metadata !"", i32 0, i32 0, i64 0, i64 0, i64 0, i32 0, null, metadata !1130, i32 0, i32 0} ; [ DW_TAG_subroutine_type ]
!1130 = metadata !{null, metadata !743, metadata !325, metadata !75, metadata !326, metadata !52}
!1131 = metadata !{i32 786478, i32 0, metadata !620, metadata !"to_string", metadata !"to_string", metadata !"_ZNK11ap_int_baseILi8ELb1ELb1EE9to_stringE8BaseModeb", metadata !59, i32 2332, metadata !1132, i1 false, i1 false, i32 0, i32 0, null, i32 256, i1 false, null, null, i32 0, metadata !71, i32 2332} ; [ DW_TAG_subprogram ]
!1132 = metadata !{i32 786453, i32 0, metadata !"", i32 0, i32 0, i64 0, i64 0, i64 0, i32 0, null, metadata !1133, i32 0, i32 0} ; [ DW_TAG_subroutine_type ]
!1133 = metadata !{metadata !325, metadata !743, metadata !326, metadata !52}
!1134 = metadata !{i32 786478, i32 0, metadata !620, metadata !"to_string", metadata !"to_string", metadata !"_ZNK11ap_int_baseILi8ELb1ELb1EE9to_stringEab", metadata !59, i32 2336, metadata !1135, i1 false, i1 false, i32 0, i32 0, null, i32 256, i1 false, null, null, i32 0, metadata !71, i32 2336} ; [ DW_TAG_subprogram ]
!1135 = metadata !{i32 786453, i32 0, metadata !"", i32 0, i32 0, i64 0, i64 0, i64 0, i32 0, null, metadata !1136, i32 0, i32 0} ; [ DW_TAG_subroutine_type ]
!1136 = metadata !{metadata !325, metadata !743, metadata !101, metadata !52}
!1137 = metadata !{metadata !1138, metadata !633, metadata !340}
!1138 = metadata !{i32 786480, null, metadata !"_AP_W", metadata !75, i64 8, null, i32 0, i32 0} ; [ DW_TAG_template_value_parameter ]
!1139 = metadata !{i32 786478, i32 0, metadata !415, metadata !"range", metadata !"range", metadata !"_ZN11ap_int_baseILi7ELb0ELb1EE5rangeEii", metadata !59, i32 2005, metadata !1140, i1 false, i1 false, i32 0, i32 0, null, i32 256, i1 false, null, null, i32 0, metadata !71, i32 2005} ; [ DW_TAG_subprogram ]
!1140 = metadata !{i32 786453, i32 0, metadata !"", i32 0, i32 0, i64 0, i64 0, i64 0, i32 0, null, metadata !1141, i32 0, i32 0} ; [ DW_TAG_subroutine_type ]
!1141 = metadata !{metadata !1142, metadata !431, metadata !75, metadata !75}
!1142 = metadata !{i32 786434, null, metadata !"ap_range_ref<7, false>", metadata !59, i32 923, i32 0, i32 0, i32 0, i32 4, null, null, i32 0} ; [ DW_TAG_class_type ]
!1143 = metadata !{i32 786478, i32 0, metadata !415, metadata !"operator()", metadata !"operator()", metadata !"_ZN11ap_int_baseILi7ELb0ELb1EEclEii", metadata !59, i32 2011, metadata !1140, i1 false, i1 false, i32 0, i32 0, null, i32 256, i1 false, null, null, i32 0, metadata !71, i32 2011} ; [ DW_TAG_subprogram ]
!1144 = metadata !{i32 786478, i32 0, metadata !415, metadata !"range", metadata !"range", metadata !"_ZNK11ap_int_baseILi7ELb0ELb1EE5rangeEii", metadata !59, i32 2017, metadata !1145, i1 false, i1 false, i32 0, i32 0, null, i32 256, i1 false, null, null, i32 0, metadata !71, i32 2017} ; [ DW_TAG_subprogram ]
!1145 = metadata !{i32 786453, i32 0, metadata !"", i32 0, i32 0, i64 0, i64 0, i64 0, i32 0, null, metadata !1146, i32 0, i32 0} ; [ DW_TAG_subroutine_type ]
!1146 = metadata !{metadata !1142, metadata !542, metadata !75, metadata !75}
!1147 = metadata !{i32 786478, i32 0, metadata !415, metadata !"operator()", metadata !"operator()", metadata !"_ZNK11ap_int_baseILi7ELb0ELb1EEclEii", metadata !59, i32 2023, metadata !1145, i1 false, i1 false, i32 0, i32 0, null, i32 256, i1 false, null, null, i32 0, metadata !71, i32 2023} ; [ DW_TAG_subprogram ]
!1148 = metadata !{i32 786478, i32 0, metadata !415, metadata !"operator[]", metadata !"operator[]", metadata !"_ZN11ap_int_baseILi7ELb0ELb1EEixEi", metadata !59, i32 2042, metadata !1149, i1 false, i1 false, i32 0, i32 0, null, i32 256, i1 false, null, null, i32 0, metadata !71, i32 2042} ; [ DW_TAG_subprogram ]
!1149 = metadata !{i32 786453, i32 0, metadata !"", i32 0, i32 0, i64 0, i64 0, i64 0, i32 0, null, metadata !1150, i32 0, i32 0} ; [ DW_TAG_subroutine_type ]
!1150 = metadata !{metadata !1151, metadata !431, metadata !75}
!1151 = metadata !{i32 786434, null, metadata !"ap_bit_ref<7, false>", metadata !59, i32 1193, i32 0, i32 0, i32 0, i32 4, null, null, i32 0} ; [ DW_TAG_class_type ]
!1152 = metadata !{i32 786478, i32 0, metadata !415, metadata !"operator[]", metadata !"operator[]", metadata !"_ZNK11ap_int_baseILi7ELb0ELb1EEixEi", metadata !59, i32 2056, metadata !593, i1 false, i1 false, i32 0, i32 0, null, i32 256, i1 false, null, null, i32 0, metadata !71, i32 2056} ; [ DW_TAG_subprogram ]
!1153 = metadata !{i32 786478, i32 0, metadata !415, metadata !"bit", metadata !"bit", metadata !"_ZN11ap_int_baseILi7ELb0ELb1EE3bitEi", metadata !59, i32 2070, metadata !1149, i1 false, i1 false, i32 0, i32 0, null, i32 256, i1 false, null, null, i32 0, metadata !71, i32 2070} ; [ DW_TAG_subprogram ]
!1154 = metadata !{i32 786478, i32 0, metadata !415, metadata !"bit", metadata !"bit", metadata !"_ZNK11ap_int_baseILi7ELb0ELb1EE3bitEi", metadata !59, i32 2084, metadata !593, i1 false, i1 false, i32 0, i32 0, null, i32 256, i1 false, null, null, i32 0, metadata !71, i32 2084} ; [ DW_TAG_subprogram ]
!1155 = metadata !{i32 786478, i32 0, metadata !415, metadata !"and_reduce", metadata !"and_reduce", metadata !"_ZN11ap_int_baseILi7ELb0ELb1EE10and_reduceEv", metadata !59, i32 2264, metadata !1156, i1 false, i1 false, i32 0, i32 0, null, i32 256, i1 false, null, null, i32 0, metadata !71, i32 2264} ; [ DW_TAG_subprogram ]
!1156 = metadata !{i32 786453, i32 0, metadata !"", i32 0, i32 0, i64 0, i64 0, i64 0, i32 0, null, metadata !1157, i32 0, i32 0} ; [ DW_TAG_subroutine_type ]
!1157 = metadata !{metadata !52, metadata !431}
!1158 = metadata !{i32 786478, i32 0, metadata !415, metadata !"nand_reduce", metadata !"nand_reduce", metadata !"_ZN11ap_int_baseILi7ELb0ELb1EE11nand_reduceEv", metadata !59, i32 2267, metadata !1156, i1 false, i1 false, i32 0, i32 0, null, i32 256, i1 false, null, null, i32 0, metadata !71, i32 2267} ; [ DW_TAG_subprogram ]
!1159 = metadata !{i32 786478, i32 0, metadata !415, metadata !"or_reduce", metadata !"or_reduce", metadata !"_ZN11ap_int_baseILi7ELb0ELb1EE9or_reduceEv", metadata !59, i32 2270, metadata !1156, i1 false, i1 false, i32 0, i32 0, null, i32 256, i1 false, null, null, i32 0, metadata !71, i32 2270} ; [ DW_TAG_subprogram ]
!1160 = metadata !{i32 786478, i32 0, metadata !415, metadata !"nor_reduce", metadata !"nor_reduce", metadata !"_ZN11ap_int_baseILi7ELb0ELb1EE10nor_reduceEv", metadata !59, i32 2273, metadata !1156, i1 false, i1 false, i32 0, i32 0, null, i32 256, i1 false, null, null, i32 0, metadata !71, i32 2273} ; [ DW_TAG_subprogram ]
!1161 = metadata !{i32 786478, i32 0, metadata !415, metadata !"xor_reduce", metadata !"xor_reduce", metadata !"_ZN11ap_int_baseILi7ELb0ELb1EE10xor_reduceEv", metadata !59, i32 2276, metadata !1156, i1 false, i1 false, i32 0, i32 0, null, i32 256, i1 false, null, null, i32 0, metadata !71, i32 2276} ; [ DW_TAG_subprogram ]
!1162 = metadata !{i32 786478, i32 0, metadata !415, metadata !"xnor_reduce", metadata !"xnor_reduce", metadata !"_ZN11ap_int_baseILi7ELb0ELb1EE11xnor_reduceEv", metadata !59, i32 2279, metadata !1156, i1 false, i1 false, i32 0, i32 0, null, i32 256, i1 false, null, null, i32 0, metadata !71, i32 2279} ; [ DW_TAG_subprogram ]
!1163 = metadata !{i32 786478, i32 0, metadata !415, metadata !"and_reduce", metadata !"and_reduce", metadata !"_ZNK11ap_int_baseILi7ELb0ELb1EE10and_reduceEv", metadata !59, i32 2283, metadata !544, i1 false, i1 false, i32 0, i32 0, null, i32 256, i1 false, null, null, i32 0, metadata !71, i32 2283} ; [ DW_TAG_subprogram ]
!1164 = metadata !{i32 786478, i32 0, metadata !415, metadata !"nand_reduce", metadata !"nand_reduce", metadata !"_ZNK11ap_int_baseILi7ELb0ELb1EE11nand_reduceEv", metadata !59, i32 2286, metadata !544, i1 false, i1 false, i32 0, i32 0, null, i32 256, i1 false, null, null, i32 0, metadata !71, i32 2286} ; [ DW_TAG_subprogram ]
!1165 = metadata !{i32 786478, i32 0, metadata !415, metadata !"or_reduce", metadata !"or_reduce", metadata !"_ZNK11ap_int_baseILi7ELb0ELb1EE9or_reduceEv", metadata !59, i32 2289, metadata !544, i1 false, i1 false, i32 0, i32 0, null, i32 256, i1 false, null, null, i32 0, metadata !71, i32 2289} ; [ DW_TAG_subprogram ]
!1166 = metadata !{i32 786478, i32 0, metadata !415, metadata !"nor_reduce", metadata !"nor_reduce", metadata !"_ZNK11ap_int_baseILi7ELb0ELb1EE10nor_reduceEv", metadata !59, i32 2292, metadata !544, i1 false, i1 false, i32 0, i32 0, null, i32 256, i1 false, null, null, i32 0, metadata !71, i32 2292} ; [ DW_TAG_subprogram ]
!1167 = metadata !{i32 786478, i32 0, metadata !415, metadata !"xor_reduce", metadata !"xor_reduce", metadata !"_ZNK11ap_int_baseILi7ELb0ELb1EE10xor_reduceEv", metadata !59, i32 2295, metadata !544, i1 false, i1 false, i32 0, i32 0, null, i32 256, i1 false, null, null, i32 0, metadata !71, i32 2295} ; [ DW_TAG_subprogram ]
!1168 = metadata !{i32 786478, i32 0, metadata !415, metadata !"xnor_reduce", metadata !"xnor_reduce", metadata !"_ZNK11ap_int_baseILi7ELb0ELb1EE11xnor_reduceEv", metadata !59, i32 2298, metadata !544, i1 false, i1 false, i32 0, i32 0, null, i32 256, i1 false, null, null, i32 0, metadata !71, i32 2298} ; [ DW_TAG_subprogram ]
!1169 = metadata !{i32 786478, i32 0, metadata !415, metadata !"to_string", metadata !"to_string", metadata !"_ZNK11ap_int_baseILi7ELb0ELb1EE9to_stringEPci8BaseModeb", metadata !59, i32 2305, metadata !1170, i1 false, i1 false, i32 0, i32 0, null, i32 256, i1 false, null, null, i32 0, metadata !71, i32 2305} ; [ DW_TAG_subprogram ]
!1170 = metadata !{i32 786453, i32 0, metadata !"", i32 0, i32 0, i64 0, i64 0, i64 0, i32 0, null, metadata !1171, i32 0, i32 0} ; [ DW_TAG_subroutine_type ]
!1171 = metadata !{null, metadata !542, metadata !325, metadata !75, metadata !326, metadata !52}
!1172 = metadata !{i32 786478, i32 0, metadata !415, metadata !"to_string", metadata !"to_string", metadata !"_ZNK11ap_int_baseILi7ELb0ELb1EE9to_stringE8BaseModeb", metadata !59, i32 2332, metadata !1173, i1 false, i1 false, i32 0, i32 0, null, i32 256, i1 false, null, null, i32 0, metadata !71, i32 2332} ; [ DW_TAG_subprogram ]
!1173 = metadata !{i32 786453, i32 0, metadata !"", i32 0, i32 0, i64 0, i64 0, i64 0, i32 0, null, metadata !1174, i32 0, i32 0} ; [ DW_TAG_subroutine_type ]
!1174 = metadata !{metadata !325, metadata !542, metadata !326, metadata !52}
!1175 = metadata !{i32 786478, i32 0, metadata !415, metadata !"to_string", metadata !"to_string", metadata !"_ZNK11ap_int_baseILi7ELb0ELb1EE9to_stringEab", metadata !59, i32 2336, metadata !1176, i1 false, i1 false, i32 0, i32 0, null, i32 256, i1 false, null, null, i32 0, metadata !71, i32 2336} ; [ DW_TAG_subprogram ]
!1176 = metadata !{i32 786453, i32 0, metadata !"", i32 0, i32 0, i64 0, i64 0, i64 0, i32 0, null, metadata !1177, i32 0, i32 0} ; [ DW_TAG_subroutine_type ]
!1177 = metadata !{metadata !325, metadata !542, metadata !101, metadata !52}
!1178 = metadata !{metadata !1179, metadata !76, metadata !340}
!1179 = metadata !{i32 786480, null, metadata !"_AP_W", metadata !75, i64 7, null, i32 0, i32 0} ; [ DW_TAG_template_value_parameter ]
!1180 = metadata !{i32 786478, i32 0, metadata !412, metadata !"ap_uint", metadata !"ap_uint", metadata !"", metadata !55, i32 183, metadata !1181, i1 false, i1 false, i32 0, i32 0, null, i32 256, i1 false, null, null, i32 0, metadata !71, i32 183} ; [ DW_TAG_subprogram ]
!1181 = metadata !{i32 786453, i32 0, metadata !"", i32 0, i32 0, i64 0, i64 0, i64 0, i32 0, null, metadata !1182, i32 0, i32 0} ; [ DW_TAG_subroutine_type ]
!1182 = metadata !{null, metadata !1183}
!1183 = metadata !{i32 786447, i32 0, metadata !"", i32 0, i32 0, i64 32, i64 32, i64 0, i32 64, metadata !412} ; [ DW_TAG_pointer_type ]
!1184 = metadata !{i32 786478, i32 0, metadata !412, metadata !"ap_uint", metadata !"ap_uint", metadata !"", metadata !55, i32 245, metadata !1185, i1 false, i1 false, i32 0, i32 0, null, i32 256, i1 false, null, null, i32 0, metadata !71, i32 245} ; [ DW_TAG_subprogram ]
!1185 = metadata !{i32 786453, i32 0, metadata !"", i32 0, i32 0, i64 0, i64 0, i64 0, i32 0, null, metadata !1186, i32 0, i32 0} ; [ DW_TAG_subroutine_type ]
!1186 = metadata !{null, metadata !1183, metadata !52}
!1187 = metadata !{i32 786478, i32 0, metadata !412, metadata !"ap_uint", metadata !"ap_uint", metadata !"", metadata !55, i32 246, metadata !1188, i1 false, i1 false, i32 0, i32 0, null, i32 256, i1 false, null, null, i32 0, metadata !71, i32 246} ; [ DW_TAG_subprogram ]
!1188 = metadata !{i32 786453, i32 0, metadata !"", i32 0, i32 0, i64 0, i64 0, i64 0, i32 0, null, metadata !1189, i32 0, i32 0} ; [ DW_TAG_subroutine_type ]
!1189 = metadata !{null, metadata !1183, metadata !101}
!1190 = metadata !{i32 786478, i32 0, metadata !412, metadata !"ap_uint", metadata !"ap_uint", metadata !"", metadata !55, i32 247, metadata !1191, i1 false, i1 false, i32 0, i32 0, null, i32 256, i1 false, null, null, i32 0, metadata !71, i32 247} ; [ DW_TAG_subprogram ]
!1191 = metadata !{i32 786453, i32 0, metadata !"", i32 0, i32 0, i64 0, i64 0, i64 0, i32 0, null, metadata !1192, i32 0, i32 0} ; [ DW_TAG_subroutine_type ]
!1192 = metadata !{null, metadata !1183, metadata !105}
!1193 = metadata !{i32 786478, i32 0, metadata !412, metadata !"ap_uint", metadata !"ap_uint", metadata !"", metadata !55, i32 248, metadata !1194, i1 false, i1 false, i32 0, i32 0, null, i32 256, i1 false, null, null, i32 0, metadata !71, i32 248} ; [ DW_TAG_subprogram ]
!1194 = metadata !{i32 786453, i32 0, metadata !"", i32 0, i32 0, i64 0, i64 0, i64 0, i32 0, null, metadata !1195, i32 0, i32 0} ; [ DW_TAG_subroutine_type ]
!1195 = metadata !{null, metadata !1183, metadata !109}
!1196 = metadata !{i32 786478, i32 0, metadata !412, metadata !"ap_uint", metadata !"ap_uint", metadata !"", metadata !55, i32 249, metadata !1197, i1 false, i1 false, i32 0, i32 0, null, i32 256, i1 false, null, null, i32 0, metadata !71, i32 249} ; [ DW_TAG_subprogram ]
!1197 = metadata !{i32 786453, i32 0, metadata !"", i32 0, i32 0, i64 0, i64 0, i64 0, i32 0, null, metadata !1198, i32 0, i32 0} ; [ DW_TAG_subroutine_type ]
!1198 = metadata !{null, metadata !1183, metadata !113}
!1199 = metadata !{i32 786478, i32 0, metadata !412, metadata !"ap_uint", metadata !"ap_uint", metadata !"", metadata !55, i32 250, metadata !1200, i1 false, i1 false, i32 0, i32 0, null, i32 256, i1 false, null, null, i32 0, metadata !71, i32 250} ; [ DW_TAG_subprogram ]
!1200 = metadata !{i32 786453, i32 0, metadata !"", i32 0, i32 0, i64 0, i64 0, i64 0, i32 0, null, metadata !1201, i32 0, i32 0} ; [ DW_TAG_subroutine_type ]
!1201 = metadata !{null, metadata !1183, metadata !75}
!1202 = metadata !{i32 786478, i32 0, metadata !412, metadata !"ap_uint", metadata !"ap_uint", metadata !"", metadata !55, i32 251, metadata !1203, i1 false, i1 false, i32 0, i32 0, null, i32 256, i1 false, null, null, i32 0, metadata !71, i32 251} ; [ DW_TAG_subprogram ]
!1203 = metadata !{i32 786453, i32 0, metadata !"", i32 0, i32 0, i64 0, i64 0, i64 0, i32 0, null, metadata !1204, i32 0, i32 0} ; [ DW_TAG_subroutine_type ]
!1204 = metadata !{null, metadata !1183, metadata !120}
!1205 = metadata !{i32 786478, i32 0, metadata !412, metadata !"ap_uint", metadata !"ap_uint", metadata !"", metadata !55, i32 252, metadata !1206, i1 false, i1 false, i32 0, i32 0, null, i32 256, i1 false, null, null, i32 0, metadata !71, i32 252} ; [ DW_TAG_subprogram ]
!1206 = metadata !{i32 786453, i32 0, metadata !"", i32 0, i32 0, i64 0, i64 0, i64 0, i32 0, null, metadata !1207, i32 0, i32 0} ; [ DW_TAG_subroutine_type ]
!1207 = metadata !{null, metadata !1183, metadata !124}
!1208 = metadata !{i32 786478, i32 0, metadata !412, metadata !"ap_uint", metadata !"ap_uint", metadata !"", metadata !55, i32 253, metadata !1209, i1 false, i1 false, i32 0, i32 0, null, i32 256, i1 false, null, null, i32 0, metadata !71, i32 253} ; [ DW_TAG_subprogram ]
!1209 = metadata !{i32 786453, i32 0, metadata !"", i32 0, i32 0, i64 0, i64 0, i64 0, i32 0, null, metadata !1210, i32 0, i32 0} ; [ DW_TAG_subroutine_type ]
!1210 = metadata !{null, metadata !1183, metadata !128}
!1211 = metadata !{i32 786478, i32 0, metadata !412, metadata !"ap_uint", metadata !"ap_uint", metadata !"", metadata !55, i32 254, metadata !1212, i1 false, i1 false, i32 0, i32 0, null, i32 256, i1 false, null, null, i32 0, metadata !71, i32 254} ; [ DW_TAG_subprogram ]
!1212 = metadata !{i32 786453, i32 0, metadata !"", i32 0, i32 0, i64 0, i64 0, i64 0, i32 0, null, metadata !1213, i32 0, i32 0} ; [ DW_TAG_subroutine_type ]
!1213 = metadata !{null, metadata !1183, metadata !138}
!1214 = metadata !{i32 786478, i32 0, metadata !412, metadata !"ap_uint", metadata !"ap_uint", metadata !"", metadata !55, i32 255, metadata !1215, i1 false, i1 false, i32 0, i32 0, null, i32 256, i1 false, null, null, i32 0, metadata !71, i32 255} ; [ DW_TAG_subprogram ]
!1215 = metadata !{i32 786453, i32 0, metadata !"", i32 0, i32 0, i64 0, i64 0, i64 0, i32 0, null, metadata !1216, i32 0, i32 0} ; [ DW_TAG_subroutine_type ]
!1216 = metadata !{null, metadata !1183, metadata !133}
!1217 = metadata !{i32 786478, i32 0, metadata !412, metadata !"ap_uint", metadata !"ap_uint", metadata !"", metadata !55, i32 256, metadata !1218, i1 false, i1 false, i32 0, i32 0, null, i32 256, i1 false, null, null, i32 0, metadata !71, i32 256} ; [ DW_TAG_subprogram ]
!1218 = metadata !{i32 786453, i32 0, metadata !"", i32 0, i32 0, i64 0, i64 0, i64 0, i32 0, null, metadata !1219, i32 0, i32 0} ; [ DW_TAG_subroutine_type ]
!1219 = metadata !{null, metadata !1183, metadata !142}
!1220 = metadata !{i32 786478, i32 0, metadata !412, metadata !"ap_uint", metadata !"ap_uint", metadata !"", metadata !55, i32 257, metadata !1221, i1 false, i1 false, i32 0, i32 0, null, i32 256, i1 false, null, null, i32 0, metadata !71, i32 257} ; [ DW_TAG_subprogram ]
!1221 = metadata !{i32 786453, i32 0, metadata !"", i32 0, i32 0, i64 0, i64 0, i64 0, i32 0, null, metadata !1222, i32 0, i32 0} ; [ DW_TAG_subroutine_type ]
!1222 = metadata !{null, metadata !1183, metadata !146}
!1223 = metadata !{i32 786478, i32 0, metadata !412, metadata !"ap_uint", metadata !"ap_uint", metadata !"", metadata !55, i32 259, metadata !1224, i1 false, i1 false, i32 0, i32 0, null, i32 256, i1 false, null, null, i32 0, metadata !71, i32 259} ; [ DW_TAG_subprogram ]
!1224 = metadata !{i32 786453, i32 0, metadata !"", i32 0, i32 0, i64 0, i64 0, i64 0, i32 0, null, metadata !1225, i32 0, i32 0} ; [ DW_TAG_subroutine_type ]
!1225 = metadata !{null, metadata !1183, metadata !150}
!1226 = metadata !{i32 786478, i32 0, metadata !412, metadata !"ap_uint", metadata !"ap_uint", metadata !"", metadata !55, i32 260, metadata !1227, i1 false, i1 false, i32 0, i32 0, null, i32 256, i1 false, null, null, i32 0, metadata !71, i32 260} ; [ DW_TAG_subprogram ]
!1227 = metadata !{i32 786453, i32 0, metadata !"", i32 0, i32 0, i64 0, i64 0, i64 0, i32 0, null, metadata !1228, i32 0, i32 0} ; [ DW_TAG_subroutine_type ]
!1228 = metadata !{null, metadata !1183, metadata !150, metadata !101}
!1229 = metadata !{i32 786478, i32 0, metadata !412, metadata !"operator=", metadata !"operator=", metadata !"_ZNV7ap_uintILi7EEaSERKS0_", metadata !55, i32 263, metadata !1230, i1 false, i1 false, i32 0, i32 0, null, i32 256, i1 false, null, null, i32 0, metadata !71, i32 263} ; [ DW_TAG_subprogram ]
!1230 = metadata !{i32 786453, i32 0, metadata !"", i32 0, i32 0, i64 0, i64 0, i64 0, i32 0, null, metadata !1231, i32 0, i32 0} ; [ DW_TAG_subroutine_type ]
!1231 = metadata !{null, metadata !1232, metadata !1234}
!1232 = metadata !{i32 786447, i32 0, metadata !"", i32 0, i32 0, i64 32, i64 32, i64 0, i32 64, metadata !1233} ; [ DW_TAG_pointer_type ]
!1233 = metadata !{i32 786485, null, metadata !"", null, i32 0, i64 0, i64 0, i64 0, i32 0, metadata !412} ; [ DW_TAG_volatile_type ]
!1234 = metadata !{i32 786448, null, null, null, i32 0, i64 0, i64 0, i64 0, i32 0, metadata !1235} ; [ DW_TAG_reference_type ]
!1235 = metadata !{i32 786470, null, metadata !"", null, i32 0, i64 0, i64 0, i64 0, i32 0, metadata !412} ; [ DW_TAG_const_type ]
!1236 = metadata !{i32 786478, i32 0, metadata !412, metadata !"operator=", metadata !"operator=", metadata !"_ZNV7ap_uintILi7EEaSERVKS0_", metadata !55, i32 267, metadata !1237, i1 false, i1 false, i32 0, i32 0, null, i32 256, i1 false, null, null, i32 0, metadata !71, i32 267} ; [ DW_TAG_subprogram ]
!1237 = metadata !{i32 786453, i32 0, metadata !"", i32 0, i32 0, i64 0, i64 0, i64 0, i32 0, null, metadata !1238, i32 0, i32 0} ; [ DW_TAG_subroutine_type ]
!1238 = metadata !{null, metadata !1232, metadata !1239}
!1239 = metadata !{i32 786448, null, null, null, i32 0, i64 0, i64 0, i64 0, i32 0, metadata !1240} ; [ DW_TAG_reference_type ]
!1240 = metadata !{i32 786470, null, metadata !"", null, i32 0, i64 0, i64 0, i64 0, i32 0, metadata !1233} ; [ DW_TAG_const_type ]
!1241 = metadata !{i32 786478, i32 0, metadata !412, metadata !"operator=", metadata !"operator=", metadata !"_ZN7ap_uintILi7EEaSERVKS0_", metadata !55, i32 271, metadata !1242, i1 false, i1 false, i32 0, i32 0, null, i32 256, i1 false, null, null, i32 0, metadata !71, i32 271} ; [ DW_TAG_subprogram ]
!1242 = metadata !{i32 786453, i32 0, metadata !"", i32 0, i32 0, i64 0, i64 0, i64 0, i32 0, null, metadata !1243, i32 0, i32 0} ; [ DW_TAG_subroutine_type ]
!1243 = metadata !{metadata !1244, metadata !1183, metadata !1239}
!1244 = metadata !{i32 786448, null, null, null, i32 0, i64 0, i64 0, i64 0, i32 0, metadata !412} ; [ DW_TAG_reference_type ]
!1245 = metadata !{i32 786478, i32 0, metadata !412, metadata !"operator=", metadata !"operator=", metadata !"_ZN7ap_uintILi7EEaSERKS0_", metadata !55, i32 276, metadata !1246, i1 false, i1 false, i32 0, i32 0, null, i32 256, i1 false, null, null, i32 0, metadata !71, i32 276} ; [ DW_TAG_subprogram ]
!1246 = metadata !{i32 786453, i32 0, metadata !"", i32 0, i32 0, i64 0, i64 0, i64 0, i32 0, null, metadata !1247, i32 0, i32 0} ; [ DW_TAG_subroutine_type ]
!1247 = metadata !{metadata !1244, metadata !1183, metadata !1234}
!1248 = metadata !{i32 786478, i32 0, metadata !412, metadata !"~ap_uint", metadata !"~ap_uint", metadata !"", metadata !55, i32 180, metadata !1181, i1 false, i1 false, i32 0, i32 0, null, i32 320, i1 false, null, null, i32 0, metadata !71, i32 180} ; [ DW_TAG_subprogram ]
!1249 = metadata !{metadata !1179}
!1250 = metadata !{i32 60, i32 20, metadata !48, null}
!1251 = metadata !{i32 790531, metadata !1252, metadata !"led.V", null, i32 60, metadata !1253, i32 0, i32 0} ; [ DW_TAG_arg_variable_field ]
!1252 = metadata !{i32 786689, metadata !48, metadata !"led", metadata !49, i32 33554492, metadata !53, i32 0, i32 0} ; [ DW_TAG_arg_variable ]
!1253 = metadata !{i32 786447, null, metadata !"", null, i32 0, i64 32, i64 32, i64 0, i32 0, metadata !1254} ; [ DW_TAG_pointer_type ]
!1254 = metadata !{i32 786438, null, metadata !"ap_uint<4>", metadata !55, i32 180, i64 4, i64 8, i32 0, i32 0, null, metadata !1255, i32 0, null, metadata !410} ; [ DW_TAG_class_field_type ]
!1255 = metadata !{metadata !1256}
!1256 = metadata !{i32 786438, null, metadata !"ap_int_base<4, false, true>", metadata !59, i32 1397, i64 4, i64 8, i32 0, i32 0, null, metadata !1257, i32 0, null, metadata !338} ; [ DW_TAG_class_field_type ]
!1257 = metadata !{metadata !1258}
!1258 = metadata !{i32 786438, null, metadata !"ssdm_int<4 + 1024 * 0, false>", metadata !63, i32 6, i64 4, i64 8, i32 0, i32 0, null, metadata !1259, i32 0, null, metadata !73} ; [ DW_TAG_class_field_type ]
!1259 = metadata !{metadata !65}
!1260 = metadata !{i32 60, i32 36, metadata !48, null}
!1261 = metadata !{i32 790531, metadata !1262, metadata !"display.V", null, i32 60, metadata !1263, i32 0, i32 0} ; [ DW_TAG_arg_variable_field ]
!1262 = metadata !{i32 786689, metadata !48, metadata !"display", metadata !49, i32 50331708, metadata !411, i32 0, i32 0} ; [ DW_TAG_arg_variable ]
!1263 = metadata !{i32 786447, null, metadata !"", null, i32 0, i64 32, i64 32, i64 0, i32 0, metadata !1264} ; [ DW_TAG_pointer_type ]
!1264 = metadata !{i32 786438, null, metadata !"ap_uint<7>", metadata !55, i32 180, i64 7, i64 8, i32 0, i32 0, null, metadata !1265, i32 0, null, metadata !1249} ; [ DW_TAG_class_field_type ]
!1265 = metadata !{metadata !1266}
!1266 = metadata !{i32 786438, null, metadata !"ap_int_base<7, false, true>", metadata !59, i32 1397, i64 7, i64 8, i32 0, i32 0, null, metadata !1267, i32 0, null, metadata !1178} ; [ DW_TAG_class_field_type ]
!1267 = metadata !{metadata !1268}
!1268 = metadata !{i32 786438, null, metadata !"ssdm_int<7 + 1024 * 0, false>", metadata !63, i32 9, i64 7, i64 8, i32 0, i32 0, null, metadata !1269, i32 0, null, metadata !426} ; [ DW_TAG_class_field_type ]
!1269 = metadata !{metadata !420}
!1270 = metadata !{i32 60, i32 53, metadata !48, null}
!1271 = metadata !{i32 65, i32 3, metadata !1272, null}
!1272 = metadata !{i32 786443, metadata !1273, i32 64, i32 13, metadata !49, i32 3} ; [ DW_TAG_lexical_block ]
!1273 = metadata !{i32 786443, metadata !48, i32 60, i32 62, metadata !49, i32 2} ; [ DW_TAG_lexical_block ]
!1274 = metadata !{i32 66, i32 3, metadata !1272, null}
!1275 = metadata !{i32 70, i32 3, metadata !1276, null}
!1276 = metadata !{i32 786443, metadata !1273, i32 69, i32 13, metadata !49, i32 4} ; [ DW_TAG_lexical_block ]
!1277 = metadata !{i32 71, i32 3, metadata !1276, null}
!1278 = metadata !{i32 250, i32 55, metadata !1279, metadata !1280}
!1279 = metadata !{i32 786478, i32 0, null, metadata !"ap_uint", metadata !"ap_uint", metadata !"_ZN7ap_uintILi4EEC2Ei", metadata !55, i32 250, metadata !361, i1 false, i1 true, i32 0, i32 0, null, i32 256, i1 false, null, null, metadata !360, metadata !71, i32 250} ; [ DW_TAG_subprogram ]
!1280 = metadata !{i32 250, i32 77, metadata !1281, metadata !1282}
!1281 = metadata !{i32 786478, i32 0, null, metadata !"ap_uint", metadata !"ap_uint", metadata !"_ZN7ap_uintILi4EEC1Ei", metadata !55, i32 250, metadata !361, i1 false, i1 true, i32 0, i32 0, null, i32 256, i1 false, null, null, metadata !360, metadata !71, i32 250} ; [ DW_TAG_subprogram ]
!1282 = metadata !{i32 76, i32 3, metadata !1283, null}
!1283 = metadata !{i32 786443, metadata !1284, i32 74, i32 33, metadata !49, i32 6} ; [ DW_TAG_lexical_block ]
!1284 = metadata !{i32 786443, metadata !1273, i32 74, i32 2, metadata !49, i32 5} ; [ DW_TAG_lexical_block ]
!1285 = metadata !{i32 250, i32 62, metadata !1286, metadata !1288}
!1286 = metadata !{i32 786443, metadata !1287, i32 250, i32 60, metadata !55, i32 11} ; [ DW_TAG_lexical_block ]
!1287 = metadata !{i32 786478, i32 0, null, metadata !"ap_uint", metadata !"ap_uint", metadata !"_ZN7ap_uintILi7EEC2Ei", metadata !55, i32 250, metadata !1200, i1 false, i1 true, i32 0, i32 0, null, i32 256, i1 false, null, null, metadata !1199, metadata !71, i32 250} ; [ DW_TAG_subprogram ]
!1288 = metadata !{i32 250, i32 77, metadata !1289, metadata !1290}
!1289 = metadata !{i32 786478, i32 0, null, metadata !"ap_uint", metadata !"ap_uint", metadata !"_ZN7ap_uintILi7EEC1Ei", metadata !55, i32 250, metadata !1200, i1 false, i1 true, i32 0, i32 0, null, i32 256, i1 false, null, null, metadata !1199, metadata !71, i32 250} ; [ DW_TAG_subprogram ]
!1290 = metadata !{i32 75, i32 14, metadata !1283, null}
!1291 = metadata !{i32 250, i32 62, metadata !1292, metadata !1280}
!1292 = metadata !{i32 786443, metadata !1279, i32 250, i32 60, metadata !55, i32 7} ; [ DW_TAG_lexical_block ]
!1293 = metadata !{i32 74, i32 7, metadata !1284, null}
!1294 = metadata !{i32 74, i32 29, metadata !1284, null}
!1295 = metadata !{i32 786689, metadata !1296, metadata !"value", metadata !49, i32 16777219, metadata !75, i32 0, metadata !1290} ; [ DW_TAG_arg_variable ]
!1296 = metadata !{i32 786478, i32 0, metadata !49, metadata !"zevenseg_output", metadata !"zevenseg_output", metadata !"_Z15zevenseg_outputi", metadata !49, i32 3, metadata !1297, i1 false, i1 true, i32 0, i32 0, null, i32 256, i1 false, null, null, null, metadata !71, i32 3} ; [ DW_TAG_subprogram ]
!1297 = metadata !{i32 786453, i32 0, metadata !"", i32 0, i32 0, i64 0, i64 0, i64 0, i32 0, null, metadata !1298, i32 0, i32 0} ; [ DW_TAG_subroutine_type ]
!1298 = metadata !{metadata !75, metadata !75}
!1299 = metadata !{i32 3, i32 25, metadata !1296, metadata !1290}
!1300 = metadata !{i32 790531, metadata !1301, metadata !"ssdm_int<7 + 1024 * 0, false>.V", null, i32 276, metadata !1263, i32 0, i32 0} ; [ DW_TAG_arg_variable_field ]
!1301 = metadata !{i32 786689, metadata !1302, metadata !"this", metadata !55, i32 16777492, metadata !411, i32 64, i32 0} ; [ DW_TAG_arg_variable ]
!1302 = metadata !{i32 786478, i32 0, null, metadata !"operator=", metadata !"operator=", metadata !"_ZN7ap_uintILi7EEaSERKS0_", metadata !55, i32 276, metadata !1246, i1 false, i1 true, i32 0, i32 0, null, i32 256, i1 false, null, null, metadata !1245, metadata !71, i32 276} ; [ DW_TAG_subprogram ]
!1303 = metadata !{i32 276, i32 53, metadata !1302, metadata !1290}
!1304 = metadata !{i32 277, i32 10, metadata !1305, metadata !1290}
!1305 = metadata !{i32 786443, metadata !1302, i32 276, i32 92, metadata !55, i32 14} ; [ DW_TAG_lexical_block ]
!1306 = metadata !{i32 786689, metadata !1281, metadata !"val", metadata !55, i32 33554682, metadata !75, i32 0, i32 0} ; [ DW_TAG_arg_variable ]
!1307 = metadata !{i32 250, i32 55, metadata !1281, metadata !1282}
!1308 = metadata !{i32 786689, metadata !1279, metadata !"val", metadata !55, i32 33554682, metadata !75, i32 0, i32 0} ; [ DW_TAG_arg_variable ]
!1309 = metadata !{i32 790531, metadata !1310, metadata !"ssdm_int<4 + 1024 * 0, false>.V", null, i32 276, metadata !1253, i32 0, i32 0} ; [ DW_TAG_arg_variable_field ]
!1310 = metadata !{i32 786689, metadata !1311, metadata !"this", metadata !55, i32 16777492, metadata !53, i32 64, i32 0} ; [ DW_TAG_arg_variable ]
!1311 = metadata !{i32 786478, i32 0, null, metadata !"operator=", metadata !"operator=", metadata !"_ZN7ap_uintILi4EEaSERKS0_", metadata !55, i32 276, metadata !407, i1 false, i1 true, i32 0, i32 0, null, i32 256, i1 false, null, null, metadata !406, metadata !71, i32 276} ; [ DW_TAG_subprogram ]
!1312 = metadata !{i32 276, i32 53, metadata !1311, metadata !1282}
!1313 = metadata !{i32 277, i32 10, metadata !1314, metadata !1282}
!1314 = metadata !{i32 786443, metadata !1311, i32 276, i32 92, metadata !55, i32 10} ; [ DW_TAG_lexical_block ]
!1315 = metadata !{i32 786688, metadata !1273, metadata !"i", metadata !49, i32 62, metadata !75, i32 0, i32 0} ; [ DW_TAG_auto_variable ]
!1316 = metadata !{i32 78, i32 1, metadata !1273, null}
